(dp1
S'/Library/Frameworks/Python.framework/Versions/2.7/lib/python2.7/atexit.py'
p2
c__builtin__
set
p3
((lp4
I6
aI8
aI10
aI12
aI13
aI37
aI46
aI47
aI49
aI52
aI54
atRp5
sS'/Library/Frameworks/Python.framework/Versions/2.7/lib/python2.7/site-packages/botocore/retryhandler.py'
p6
g3
((lp7
I15
aI16
aI17
aI18
aI20
aI21
aI23
aI26
aI31
aI33
aI34
aI39
aI61
aI68
aI69
aI72
aI73
aI74
aI75
aI76
aI77
aI80
aI85
aI86
aI87
aI88
aI89
aI92
aI93
aI94
aI95
aI96
aI97
aI98
aI99
aI100
aI101
aI102
aI103
aI104
aI105
aI113
aI117
aI118
aI119
aI120
aI123
aI124
aI125
aI126
aI127
aI128
aI131
aI132
aI133
aI134
aI135
aI136
aI137
aI138
aI144
aI147
aI148
aI149
aI151
aI152
aI153
aI154
aI155
aI158
aI170
aI172
aI173
aI174
aI176
aI183
aI187
aI190
aI196
aI197
aI219
aI220
aI227
aI228
aI230
aI234
aI243
aI244
aI245
aI246
aI247
aI249
aI250
aI251
aI252
aI263
aI265
aI266
aI267
aI268
aI269
aI280
aI281
aI282
aI284
aI285
aI291
aI294
aI295
aI296
aI297
aI299
aI300
aI307
aI310
aI311
aI312
aI314
aI315
aI316
aI317
aI318
aI320
aI323
aI324
aI328
aI345
aI350
aI351
atRp8
sS'/Library/Frameworks/Python.framework/Versions/2.7/lib/python2.7/ctypes/macholib/dylib.py'
p9
g3
((lp10
I3
aI5
aI7
aI9
aI45
aI17
aI19
aI62
atRp11
sS'/Library/Frameworks/Python.framework/Versions/2.7/lib/python2.7/cgi.py'
p12
g3
((lp13
I516
aI519
aI1039
aI16
aI532
aI1050
aI31
aI1058
aI37
aI38
aI39
aI40
aI41
aI43
aI44
aI45
aI50
aI51
aI53
aI54
aI568
aI58
aI59
aI60
aI61
aI62
aI63
aI579
aI68
aI69
aI71
aI585
aI591
aI597
aI601
aI604
aI615
aI617
aI106
aI110
aI114
aI122
aI124
aI640
aI649
aI651
aI664
aI672
aI680
aI689
aI180
aI187
aI193
aI546
aI803
aI730
aI751
aI783
aI795
aI796
aI291
aI292
aI293
aI294
aI295
aI297
aI298
aI299
aI300
aI301
aI814
aI815
aI819
aI821
aI310
aI311
aI312
aI828
aI309
aI321
aI837
aI838
aI839
aI329
aI332
aI333
aI334
aI335
aI336
aI337
aI338
aI339
aI341
aI855
aI347
aI557
aI352
aI865
aI866
aI867
aI870
aI876
aI879
aI881
aI884
aI891
aI393
aI395
aI396
aI303
aI930
aI327
aI944
aI956
aI973
aI985
aI847
aI992
aI511
atRp14
sS'/Library/Frameworks/Python.framework/Versions/2.7/lib/python2.7/abc.py'
p15
g3
((lp16
I32
aI33
aI87
aI89
aI90
aI91
aI92
aI93
aI94
aI95
aI96
aI97
aI99
aI100
aI101
aI102
aI103
aI107
aI109
aI113
aI116
aI117
aI131
aI132
aI133
aI134
aI136
aI138
aI139
aI140
aI141
aI142
aI144
aI151
aI152
aI154
aI156
aI157
aI158
aI161
aI162
aI170
aI174
aI175
aI176
aI177
aI179
aI180
aI181
aI182
aI184
aI185
atRp17
sS'/Library/Frameworks/Python.framework/Versions/2.7/lib/python2.7/site-packages/dateutil/__init__.py'
p18
g3
((lp19
I2
atRp20
sS'/Library/Frameworks/Python.framework/Versions/2.7/lib/python2.7/site-packages/botocore/docs/service.py'
p21
g3
((lp22
I68
aI86
aI13
aI78
aI15
aI16
aI17
aI18
aI14
aI22
aI38
aI53
aI56
aI59
aI21
atRp23
sS'/Library/Frameworks/Python.framework/Versions/2.7/lib/python2.7/ConfigParser.py'
p24
g3
((lp25
I515
aI516
aI517
aI518
aI521
aI522
aI528
aI530
aI532
aI174
aI545
aI549
aI550
aI551
aI552
aI553
aI554
aI556
aI558
aI565
aI567
aI570
aI578
aI588
aI590
aI88
aI90
aI91
aI96
aI98
aI99
aI100
aI101
aI102
aI103
aI105
aI107
aI112
aI625
aI115
aI120
aI128
aI130
aI134
aI137
aI139
aI140
aI142
aI657
aI147
aI148
aI150
aI155
aI156
aI158
aI676
aI165
aI678
aI113
aI168
aI686
aI175
aI688
aI177
aI694
aI696
aI188
aI190
aI192
aI193
aI195
aI204
aI205
aI207
aI213
aI217
aI218
aI220
aI734
aI231
aI232
aI233
aI234
aI235
aI236
aI237
aI240
aI241
aI245
aI248
aI251
aI253
aI267
aI274
aI276
aI277
aI280
aI281
aI282
aI283
aI285
aI297
aI299
aI300
aI301
aI302
aI305
aI306
aI307
aI308
aI310
aI326
aI327
aI328
aI335
aI336
aI342
aI355
aI358
aI361
aI364
aI365
aI367
aI373
aI374
aI376
aI388
aI399
aI416
aI431
aI441
aI442
aI446
aI447
aI454
aI455
aI464
aI474
aI475
aI476
aI477
aI478
aI479
aI480
aI481
aI482
aI484
aI166
aI486
aI490
aI497
aI498
aI499
aI500
aI502
aI505
aI506
aI507
aI509
aI511
atRp26
sS'/Library/Frameworks/Python.framework/Versions/2.7/lib/python2.7/xml/etree/cElementTree.py'
p27
g3
((lp28
I3
atRp29
sS'/Library/Frameworks/Python.framework/Versions/2.7/lib/python2.7/site-packages/botocore/vendored/requests/__init__.py'
p30
g3
((lp31
I69
aI70
aI71
aI77
aI42
aI44
aI45
aI46
aI47
aI48
aI49
aI52
aI53
aI54
aI58
aI59
aI60
aI61
aI62
aI63
atRp32
sS'/Library/Frameworks/Python.framework/Versions/2.7/lib/python2.7/site-packages/botocore/vendored/requests/packages/urllib3/contrib/__init__.py'
p33
g3
((lp34
I1
atRp35
sS'/Library/Frameworks/Python.framework/Versions/2.7/lib/python2.7/encodings/utf_8.py'
p36
g3
((lp37
I16
atRp38
sS'/Library/Frameworks/Python.framework/Versions/2.7/lib/python2.7/site-packages/cryptography/hazmat/bindings/openssl/__init__.py'
p39
g3
((lp40
I5
atRp41
sS'/Library/Frameworks/Python.framework/Versions/2.7/lib/python2.7/multiprocessing/util.py'
p42
g3
((lp43
I299
aI289
aI35
aI36
aI37
aI38
aI39
aI41
aI298
aI43
aI46
aI47
aI48
aI49
aI56
aI57
aI58
aI59
aI60
aI62
aI63
aI65
aI66
aI68
aI72
aI76
aI333
aI80
aI339
aI340
aI344
aI349
aI350
aI352
aI113
aI135
aI149
aI150
aI152
aI161
aI168
aI169
aI172
aI175
aI176
aI192
aI212
aI224
aI230
aI295
aI297
aI84
aI250
atRp44
sS'/Library/Frameworks/Python.framework/Versions/2.7/lib/python2.7/ctypes/util.py'
p45
g3
((lp46
I1
aI2
aI3
aI6
aI73
aI74
aI75
aI76
aI77
aI78
aI79
aI80
aI81
aI82
aI83
aI84
aI279
aI307
aI63
atRp47
sS'/Library/Frameworks/Python.framework/Versions/2.7/lib/python2.7/ctypes/macholib/dyld.py'
p48
g3
((lp49
I3
aI5
aI6
aI7
aI8
aI11
aI12
aI18
aI19
aI20
aI21
aI25
aI26
aI27
aI28
aI31
aI33
aI35
aI37
aI38
aI39
aI40
aI41
aI42
aI45
aI46
aI47
aI48
aI50
aI51
aI53
aI54
aI56
aI57
aI59
aI60
aI62
aI64
aI65
aI66
aI76
aI82
aI84
aI85
aI90
aI93
aI97
aI100
aI101
aI103
aI105
aI106
aI107
aI110
aI111
aI114
aI115
aI116
aI118
aI119
aI120
aI122
aI126
aI127
aI128
aI129
aI130
aI131
aI132
aI133
aI135
aI137
aI160
aI165
atRp50
sS'/Library/Frameworks/Python.framework/Versions/2.7/lib/python2.7/ctypes/_endian.py'
p51
g3
((lp52
I1
aI2
aI4
aI6
aI23
aI24
aI41
aI42
aI44
aI46
aI47
aI48
aI49
atRp53
sS'/Library/Frameworks/Python.framework/Versions/2.7/lib/python2.7/site-packages/botocore/vendored/requests/packages/urllib3/util/ssl_.py'
p54
g3
((lp55
I1
aI2
aI260
aI261
aI262
aI7
aI8
aI265
aI266
aI267
aI12
aI14
aI15
aI16
aI17
aI276
aI278
aI279
aI4
aI42
aI263
aI47
aI48
aI9
aI11
aI105
aI22
aI23
aI142
aI153
aI156
aI157
aI158
aI160
aI165
aI169
aI170
aI181
aI182
aI216
aI219
aI221
aI222
aI224
aI226
aI229
aI231
aI233
aI234
aI236
aI237
aI240
aI241
aI244
aI245
aI246
atRp56
sS'/Library/Frameworks/Python.framework/Versions/2.7/lib/python2.7/site-packages/botocore/docs/params.py'
p57
g3
((lp58
I128
aI129
aI131
aI133
aI13
aI14
aI17
aI18
aI147
aI152
aI153
aI155
aI158
aI38
aI41
aI42
aI45
aI46
aI179
aI180
aI58
aI59
aI80
aI81
aI214
aI218
aI97
aI100
aI107
aI119
aI123
atRp59
sS'/Library/Frameworks/Python.framework/Versions/2.7/lib/python2.7/pkgutil.py'
p60
g3
((lp61
I513
aI518
aI520
aI521
aI522
aI524
aI526
aI527
aI528
aI529
aI532
aI533
aI537
aI538
aI552
atRp62
sS'/Library/Frameworks/Python.framework/Versions/2.7/lib/python2.7/site-packages/boto3/docs/service.py'
p63
g3
((lp64
I51
aI86
aI72
aI13
aI15
aI16
aI81
aI18
aI20
aI21
aI22
aI23
aI26
aI28
aI30
aI17
aI115
aI120
atRp65
sS'/Library/Frameworks/Python.framework/Versions/2.7/lib/python2.7/site-packages/boto3/docs/collection.py'
p66
g3
((lp67
I71
aI140
aI13
aI14
aI15
aI17
aI18
aI19
aI20
aI23
aI24
aI89
aI40
atRp68
sS'/Library/Frameworks/Python.framework/Versions/2.7/lib/python2.7/os.py'
p69
g3
((lp70
I515
aI507
atRp71
sS'/Library/Frameworks/Python.framework/Versions/2.7/lib/python2.7/site-packages/botocore/auth.py'
p72
g3
((lp73
I14
aI15
aI16
aI17
aI18
aI19
aI20
aI21
aI22
aI23
aI24
aI25
aI27
aI28
aI29
aI30
aI31
aI32
aI33
aI34
aI35
aI36
aI38
aI42
aI46
aI47
aI48
aI50
aI51
aI52
aI54
aI57
aI58
aI60
aI64
aI67
aI69
aI72
aI100
aI125
aI126
aI129
aI151
aI154
aI155
aI157
aI158
aI162
aI163
aI165
aI166
aI167
aI169
aI170
aI172
aI177
aI178
aI179
aI180
aI181
aI182
aI183
aI184
aI186
aI187
aI188
aI189
aI190
aI192
aI193
aI197
aI199
aI204
aI207
aI209
aI218
aI219
aI220
aI222
aI223
aI224
aI225
aI226
aI229
aI230
aI231
aI232
aI234
aI241
aI242
aI243
aI244
aI245
aI246
aI247
aI249
aI255
aI257
aI258
aI259
aI260
aI262
aI263
aI267
aI277
aI280
aI282
aI284
aI286
aI292
aI294
aI295
aI296
aI297
aI298
aI299
aI300
aI301
aI302
aI303
aI306
aI307
aI309
aI313
aI314
aI315
aI316
aI317
aI318
aI319
aI321
aI322
aI323
aI324
aI325
aI326
aI327
aI329
aI335
aI336
aI337
aI338
aI339
aI341
aI342
aI343
aI344
aI345
aI346
aI347
aI348
aI350
aI351
aI353
aI354
aI357
aI358
aI359
aI360
aI361
aI362
aI363
aI364
aI366
aI368
aI369
aI370
aI371
aI372
aI373
aI374
aI376
aI377
aI379
aI380
aI385
aI390
aI394
aI403
aI405
aI408
aI409
aI410
aI411
aI412
aI414
aI417
aI418
aI419
aI420
aI422
aI423
aI424
aI427
aI429
aI433
aI434
aI438
aI439
aI443
aI444
aI451
aI452
aI453
aI456
aI461
aI463
aI465
aI468
aI469
aI472
aI477
aI538
aI550
aI557
aI567
aI568
aI572
aI580
aI586
aI587
aI626
aI629
aI630
aI631
aI632
aI633
aI634
aI635
aI636
aI637
aI638
aI639
aI641
aI644
aI650
aI667
aI681
aI690
aI715
aI716
aI725
aI726
aI737
aI748
aI751
aI764
aI773
aI774
aI776
aI780
aI783
aI814
aI821
aI822
aI854
aI855
aI856
aI857
aI858
aI859
aI860
aI861
aI862
aI863
aI864
aI865
atRp74
sS'/Library/Frameworks/Python.framework/Versions/2.7/lib/python2.7/site-packages/simplejson/scanner.py'
p75
g3
((lp76
I2
aI3
aI68
aI5
aI6
aI7
aI10
aI12
aI14
aI15
aI16
aI18
aI4
aI30
aI133
aI32
aI44
aI48
aI57
atRp77
sS'/Library/Frameworks/Python.framework/Versions/2.7/lib/python2.7/site-packages/botocore/vendored/requests/packages/urllib3/util/request.py'
p78
g3
((lp79
I1
aI3
aI5
aI8
aI9
atRp80
sS'/Library/Frameworks/Python.framework/Versions/2.7/lib/python2.7/site-packages/figleaf-0.6.1-py2.7.egg/figleaf/__init__.py'
p81
g3
((lp82
I234
aI235
atRp83
sS'/Library/Frameworks/Python.framework/Versions/2.7/lib/python2.7/site-packages/botocore/docs/bcdoc/style.py'
p84
g3
((lp85
I256
aI260
aI264
aI307
aI269
aI14
aI16
aI273
aI19
aI21
aI279
aI27
aI285
aI31
aI48
aI291
aI38
aI41
aI298
aI45
aI304
aI51
aI54
aI393
aI313
aI60
aI63
aI321
aI67
aI69
aI75
aI78
aI336
aI81
aI84
aI57
aI344
aI143
aI353
aI310
aI103
aI316
aI106
aI363
aI109
aI113
aI370
aI117
aI376
aI123
aI380
aI128
aI389
aI134
aI137
aI140
aI399
aI146
aI403
aI149
aI408
aI155
aI414
aI159
aI163
aI167
aI171
aI359
aI177
aI183
aI187
aI325
aI193
aI197
aI203
aI207
aI35
aI221
aI224
aI232
atRp86
sS'/Library/Frameworks/Python.framework/Versions/2.7/lib/python2.7/site-packages/boto3/docs/resource.py'
p87
g3
((lp88
I51
aI13
aI14
aI16
aI17
aI18
aI19
aI20
aI21
aI22
aI23
aI24
aI25
aI26
aI27
aI30
aI31
aI35
aI48
aI179
aI200
aI75
aI208
aI82
aI216
aI224
aI100
aI145
aI236
aI237
aI110
aI241
aI244
aI250
aI123
atRp89
sS'/Library/Frameworks/Python.framework/Versions/2.7/lib/python2.7/site-packages/botocore/docs/bcdoc/docstringparser.py'
p90
g3
((lp91
I130
aI135
aI140
aI13
aI16
aI146
aI147
aI21
aI150
aI23
aI154
aI28
aI32
aI38
aI44
aI173
aI47
aI176
aI177
aI50
aI54
aI183
aI186
aI59
aI60
aI66
aI81
aI89
aI92
aI96
aI97
aI100
aI104
aI105
aI109
aI113
aI116
aI121
aI124
aI125
atRp92
sS'/Library/Frameworks/Python.framework/Versions/2.7/lib/python2.7/site-packages/packaging/__about__.py'
p93
g3
((lp94
I4
aI7
aI8
aI11
aI12
aI13
aI15
aI17
aI18
aI20
aI21
atRp95
sS'/Library/Frameworks/Python.framework/Versions/2.7/lib/python2.7/site-packages/botocore/docs/sharedexample.py'
p96
g3
((lp97
I194
aI201
aI74
aI13
aI14
aI15
aI16
aI17
aI20
aI149
aI100
aI166
aI40
aI172
aI175
aI182
aI57
aI127
aI189
aI21
atRp98
sS'/Library/Frameworks/Python.framework/Versions/2.7/lib/python2.7/site-packages/botocore/vendored/requests/packages/urllib3/exceptions.py'
p99
g3
((lp100
I4
aI5
aI6
aI8
aI9
aI10
aI14
aI15
aI16
aI20
aI25
aI26
aI27
aI31
aI36
aI37
aI38
aI41
aI42
aI43
aI46
aI47
aI48
aI51
aI52
aI53
aI57
aI62
aI70
aI72
aI81
aI82
aI84
aI90
aI91
aI92
aI95
aI100
aI101
aI104
aI105
aI106
aI111
aI112
aI113
aI116
aI117
aI118
aI121
aI122
aI123
aI126
aI127
aI128
aI131
aI132
aI134
aI141
aI142
aI143
aI144
aI147
aI148
aI149
aI152
aI153
aI154
aI157
aI158
aI159
aI162
aI163
aI164
aI167
aI168
aI169
atRp101
sS'/Library/Frameworks/Python.framework/Versions/2.7/lib/python2.7/site-packages/botocore/compat.py'
p102
g3
((lp103
I260
aI273
aI14
aI15
aI16
aI17
aI18
aI19
aI20
aI21
aI22
aI24
aI25
aI26
aI28
aI31
aI288
aI85
aI86
aI87
aI88
aI89
aI90
aI91
aI92
aI93
aI94
aI95
aI96
aI97
aI98
aI99
aI100
aI101
aI103
aI107
aI108
aI109
aI111
aI121
aI129
aI130
aI132
aI133
aI134
aI135
aI137
aI144
aI145
aI151
aI278
aI172
aI173
aI174
aI176
aI179
aI182
aI184
aI185
aI186
aI187
aI188
aI189
aI192
aI200
aI207
aI208
aI211
aI229
aI272
aI253
aI254
aI255
atRp104
sS'/Library/Frameworks/Python.framework/Versions/2.7/lib/python2.7/site-packages/dateutil/tz/__init__.py'
p105
g3
((lp106
I1
aI3
aI4
atRp107
sS'/Library/Frameworks/Python.framework/Versions/2.7/lib/python2.7/site-packages/boto3/docs/waiter.py'
p108
g3
((lp109
I13
aI14
aI15
aI17
aI18
aI19
aI53
aI22
aI23
aI27
atRp110
sS'/Library/Frameworks/Python.framework/Versions/2.7/lib/python2.7/site-packages/botocore/vendored/requests/packages/urllib3/util/connection.py'
p111
g3
((lp112
I1
aI2
aI3
aI12
aI22
aI23
aI25
aI28
aI38
aI39
aI40
aI41
aI43
aI48
aI49
aI62
aI63
aI64
aI65
aI66
aI67
aI68
aI72
aI74
aI75
aI76
aI78
aI79
aI93
aI94
aI97
aI98
atRp113
sS'/Library/Frameworks/Python.framework/Versions/2.7/lib/python2.7/site-packages/cryptography/hazmat/backends/__init__.py'
p114
g3
((lp115
I67
aI5
aI70
aI7
aI10
aI13
aI42
atRp116
sS'/Library/Frameworks/Python.framework/Versions/2.7/lib/python2.7/logging/__init__.py'
p117
g3
((lp118
I1026
aI1027
aI1028
aI1029
aI1030
aI1032
aI685
aI1043
aI1044
aI1046
aI24
aI1049
aI26
aI1051
aI1052
aI1053
aI1054
aI1055
aI32
aI1057
aI34
aI347
aI36
aI1061
aI1062
aI1063
aI1065
aI42
aI43
aI1068
aI178
aI47
aI48
aI50
aI51
aI1078
aI56
aI57
aI58
aI1083
aI1084
aI1085
aI1086
aI1087
aI1088
aI1089
aI1091
aI1092
aI1093
aI70
aI1095
aI1096
aI1097
aI1098
aI1099
aI1100
aI77
aI1102
aI1107
aI1108
aI1109
aI1111
aI1112
aI89
aI1119
aI100
aI105
aI1133
aI110
aI1138
aI1139
aI1140
aI1141
aI1142
aI1143
aI1144
aI1146
aI123
aI124
aI125
aI126
aI127
aI128
aI129
aI130
aI132
aI133
aI134
aI135
aI136
aI1161
aI138
aI139
aI140
aI141
aI142
aI143
aI144
aI145
aI148
aI1173
aI1176
aI1050
aI1188
aI1190
aI28
aI29
aI177
aI1202
aI179
aI30
aI1209
aI186
aI31
aI1056
aI1221
aI1223
aI200
aI201
aI205
aI211
aI212
aI214
aI1240
aI1060
aI218
aI219
aI37
aI225
aI236
aI1261
aI238
aI41
aI1274
aI1066
aI1580
aI1134
aI1295
aI1305
aI1309
aI1310
aI1311
aI1312
aI1314
aI1316
aI1327
aI308
aI312
aI1353
aI332
aI1360
aI1361
aI1362
aI1363
aI1364
aI1367
aI1371
aI1373
aI1375
aI1712
aI1394
aI1399
aI1400
aI63
aI1404
aI1406
aI1408
aI387
aI1412
aI389
aI1414
aI391
aI399
aI402
aI403
aI1428
aI405
aI1441
aI1449
aI431
aI1457
aI1465
aI446
aI1473
aI452
aI1482
aI1490
aI1498
aI1504
aI1505
aI1506
aI1512
aI1514
aI501
aI503
aI506
aI507
aI517
aI523
aI529
aI1113
aI545
aI1574
aI555
aI556
aI1581
aI567
aI1594
aI95
aI1602
aI1604
aI582
aI586
aI587
aI1612
aI591
aI593
aI1620
aI600
aI1628
aI1630
aI607
aI1638
aI1646
aI626
aI627
aI629
aI1654
aI1660
aI653
aI657
aI658
aI659
aI661
aI663
aI1691
aI1692
aI671
aI1696
aI677
aI678
aI679
aI680
aI1705
aI682
aI683
aI1709
aI688
aI1713
aI1717
aI1719
aI699
aI701
aI705
aI706
aI710
aI1737
aI717
aI724
aI730
aI743
aI753
aI1048
aI1152
aI771
aI777
aI786
aI803
aI137
aI827
aI832
aI834
aI1164
aI845
aI856
aI1058
aI33
aI898
aI901
aI902
aI922
aI944
aI955
aI672
aI970
aI975
aI976
aI981
aI983
aI164
aI988
aI990
aI995
aI997
aI1021
aI1010
aI1017
aI1706
aI1022
atRp119
sS'/Library/Frameworks/Python.framework/Versions/2.7/lib/python2.7/inspect.py'
p120
g3
((lp121
I256
aI257
aI258
aI153
aI795
aI796
aI799
aI800
aI801
aI802
aI815
aI816
aI817
aI818
aI819
aI820
aI76
aI224
aI750
aI753
aI754
aI755
aI756
aI759
aI760
aI249
aI250
aI251
aI252
aI255
atRp122
sS'/Library/Frameworks/Python.framework/Versions/2.7/lib/python2.7/site-packages/cryptography/hazmat/bindings/openssl/binding.py'
p123
g3
((lp124
I5
aI7
aI8
aI9
aI11
aI12
aI13
aI15
aI16
aI17
aI18
aI22
aI38
aI39
aI64
aI65
aI66
aI67
aI68
aI69
aI70
aI72
aI73
aI74
aI76
aI79
aI82
aI83
aI84
aI85
aI86
aI87
aI89
aI90
aI92
aI99
aI100
aI101
aI102
aI103
aI105
aI107
aI108
aI109
aI110
aI112
aI114
aI116
aI117
aI119
aI121
aI122
aI125
aI127
aI132
aI133
aI141
atRp125
sS'/Library/Frameworks/Python.framework/Versions/2.7/lib/python2.7/site-packages/botocore/history.py'
p126
g3
((lp127
I13
aI16
aI17
aI20
aI21
aI25
aI26
aI27
aI28
aI30
aI33
aI36
aI39
aI40
aI51
aI53
aI54
aI55
atRp128
sS'/Library/Frameworks/Python.framework/Versions/2.7/lib/python2.7/site-packages/botocore/vendored/requests/packages/urllib3/util/response.py'
p129
g3
((lp130
I1
aI9
aI11
aI12
aI13
aI15
aI18
atRp131
sS'/Library/Frameworks/Python.framework/Versions/2.7/lib/python2.7/site-packages/boto3/session.py'
p132
g3
((lp133
I14
aI15
aI17
aI18
aI19
aI21
aI22
aI23
aI25
aI28
aI47
aI48
aI49
aI50
aI51
aI55
aI58
aI59
aI60
aI61
aI64
aI65
aI66
aI68
aI71
aI75
aI78
aI79
aI80
aI81
aI83
aI88
aI95
aI102
aI107
aI109
aI116
aI120
aI121
aI122
aI124
aI134
aI144
aI152
aI153
aI175
aI185
aI186
aI187
aI188
aI258
aI259
aI260
aI261
aI262
aI263
aI265
aI266
aI267
aI268
aI410
aI413
aI414
aI415
aI416
aI417
aI418
aI419
aI420
aI421
aI422
aI423
aI424
aI425
aI426
aI427
aI428
aI431
aI432
aI433
aI434
aI435
aI436
aI437
aI438
aI439
aI440
aI443
aI444
aI445
aI446
aI448
aI449
aI450
aI451
aI452
atRp134
sS'/Library/Frameworks/Python.framework/Versions/2.7/lib/python2.7/json/scanner.py'
p135
g3
((lp136
I2
aI3
aI4
aI5
aI9
aI11
aI12
aI13
aI15
aI67
atRp137
sS'/Library/Frameworks/Python.framework/Versions/2.7/lib/python2.7/decimal.py'
p138
g3
((lp139
I6156
aI4113
aI6166
aI4121
aI4134
aI4147
aI6207
aI6208
aI6209
aI6210
aI6211
aI6212
aI6215
aI6219
aI4184
aI116
aI120
aI123
aI2172
aI4221
aI126
aI127
aI130
aI131
aI134
aI137
aI139
aI140
aI142
aI143
aI144
aI4244
aI149
aI150
aI151
aI152
aI153
aI154
aI155
aI156
aI160
aI4265
aI178
aI179
aI183
aI2420
aI4289
aI195
aI4312
aI217
aI218
aI224
aI4323
aI230
aI231
aI234
aI1747
aI245
aI247
aI4345
aI250
aI5845
aI256
aI258
aI261
aI4360
aI267
aI269
aI272
aI4376
aI282
aI284
aI293
aI295
aI298
aI4399
aI308
aI310
aI4414
aI319
aI3808
aI4431
aI193
aI2388
aI341
aI343
aI2395
aI4447
aI359
aI3815
aI372
aI4469
aI375
aI376
aI379
aI380
aI381
aI382
aI4160
aI4486
aI392
aI393
aI403
aI404
aI4508
aI3484
aI436
aI437
aI4536
aI2491
aI454
aI2506
aI461
aI463
aI3832
aI4562
aI1789
aI2540
aI4589
aI3837
aI505
aI506
aI508
aI4608
aI514
aI2563
aI537
aI4635
aI541
aI542
aI543
aI2592
aI549
aI550
aI552
aI553
aI554
aI5895
aI2609
aI562
aI2611
aI565
aI566
aI569
aI572
aI573
aI574
aI575
aI578
aI579
aI580
aI582
aI583
aI584
aI585
aI586
aI440
aI4706
aI5566
aI4733
aI4750
aI661
aI2710
aI4767
aI697
aI699
aI4799
aI2752
aI714
aI4819
aI1797
aI727
aI2786
aI4839
aI2795
aI2801
aI3844
aI759
aI2809
aI2817
aI4874
aI2829
aI1390
aI792
aI799
aI4898
aI1751
aI5941
aI4948
aI2902
aI863
aI2913
aI1851
aI2917
aI871
aI2924
aI879
aI5894
aI888
aI897
aI1803
aI906
aI915
aI1804
aI3850
aI5896
aI5045
aI3005
aI3013
aI3021
aI3025
aI3029
aI986
aI3037
aI993
aI3045
aI3852
aI3049
aI5103
aI3057
aI3061
aI5111
aI3086
aI1050
aI5149
aI1059
aI1081
aI5183
aI3136
aI1102
aI5212
aI3166
aI4965
aI1124
aI5236
aI5255
aI3217
aI5285
aI2930
aI3247
aI1210
aI1212
aI3261
aI5317
aI3274
aI1234
aI3291
aI5340
aI3298
aI3315
aI5368
aI5376
aI3332
aI1289
aI1291
aI5406
aI3362
aI563
aI5436
aI5438
aI5439
aI3392
aI5444
aI4662
aI1350
aI5459
aI5462
aI3415
aI5466
aI1383
aI3438
aI1391
aI1393
aI5501
aI5502
aI5503
aI5504
aI5505
aI5514
aI5699
aI5844
aI1429
aI1436
aI5535
aI5550
aI5558
aI1463
aI1470
aI3526
aI3530
aI5846
aI934
aI4689
aI3563
aI5614
aI3588
aI1545
aI5648
aI1573
aI3627
aI1580
aI3630
aI3635
aI1590
aI3642
aI5692
aI5695
aI5696
aI5697
aI1603
aI1605
aI1607
aI1609
aI1611
aI1613
aI1616
aI1619
aI1626
aI5727
aI5729
aI1638
aI5766
aI3724
aI3743
aI3748
aI3753
aI5802
aI3756
aI3760
aI3763
aI3780
aI3782
aI3783
aI3784
aI3785
aI3786
aI1740
aI3789
aI3790
aI3791
aI3792
aI3794
aI3795
aI3796
aI3797
aI3798
aI3799
aI3801
aI3802
aI3806
aI5855
aI1760
aI3809
aI3813
aI1767
aI3816
aI3820
aI1775
aI1782
aI5879
aI5880
aI5881
aI5882
aI5883
aI5884
aI5885
aI1796
aI5893
aI1798
aI1799
aI1800
aI1801
aI1802
aI5899
aI5900
aI5901
aI5902
aI1807
aI5920
aI5921
aI3874
aI3878
aI3885
aI5938
aI5940
aI3893
aI3895
aI3899
aI3903
aI5952
aI3041
aI5964
aI5966
aI3922
aI5971
aI5972
aI5976
aI3939
aI998
aI3957
aI321
aI3978
aI1935
aI3999
aI4002
aI4013
aI6063
aI6096
aI4049
aI1226
aI6119
aI4084
aI3754
atRp140
sS'/Library/Frameworks/Python.framework/Versions/2.7/lib/python2.7/fractions.py'
p141
g3
((lp142
I4
aI261
aI6
aI7
aI8
aI9
aI10
aI11
aI13
aI15
aI580
aI273
aI18
aI280
aI29
aI546
aI41
aI44
aI265
aI572
aI63
aI576
aI65
aI68
aI584
aI588
aI269
aI594
aI597
aI602
aI527
aI360
aI369
aI370
aI372
aI382
aI383
aI385
aI387
aI393
aI395
aI401
aI403
aI407
aI409
aI414
aI415
aI417
aI168
aI429
aI184
aI441
aI446
aI451
aI206
aI475
aI489
aI493
aI497
aI501
aI508
atRp143
sS'/Library/Frameworks/Python.framework/Versions/2.7/lib/python2.7/site-packages/s3transfer/exceptions.py'
p144
g3
((lp145
I13
aI16
aI17
aI22
aI23
aI26
aI27
aI30
aI31
aI34
aI35
aI36
atRp146
sS'/Library/Frameworks/Python.framework/Versions/2.7/lib/python2.7/site-packages/OpenSSL/version.py'
p147
g3
((lp148
I7
aI10
aI11
aI14
aI16
aI17
aI18
aI19
aI20
aI21
aI22
atRp149
sS'/Library/Frameworks/Python.framework/Versions/2.7/lib/python2.7/site-packages/botocore/session.py'
p150
g3
((lp151
I17
aI19
aI20
aI21
aI22
aI24
aI25
aI26
aI27
aI28
aI29
aI30
aI31
aI32
aI33
aI34
aI35
aI36
aI37
aI38
aI39
aI42
aI45
aI54
aI80
aI82
aI83
aI84
aI85
aI86
aI87
aI91
aI98
aI99
aI103
aI104
aI105
aI109
aI111
aI112
aI137
aI138
aI140
aI141
aI144
aI145
aI146
aI147
aI148
aI152
aI153
aI154
aI155
aI158
aI159
aI161
aI162
aI163
aI165
aI166
aI167
aI168
aI169
aI170
aI171
aI173
aI174
aI176
aI177
aI178
aI179
aI181
aI182
aI183
aI184
aI186
aI187
aI188
aI189
aI190
aI191
aI192
aI194
aI195
aI196
aI198
aI199
aI200
aI202
aI203
aI204
aI205
aI206
aI208
aI209
aI210
aI211
aI212
aI214
aI218
aI222
aI223
aI224
aI226
aI234
aI258
aI262
aI263
aI264
aI272
aI273
aI274
aI275
aI276
aI277
aI279
aI280
aI281
aI282
aI283
aI284
aI286
aI287
aI288
aI289
aI290
aI291
aI293
aI294
aI295
aI298
aI300
aI301
aI302
aI304
aI305
aI306
aI307
aI309
aI312
aI313
aI314
aI315
aI316
aI317
aI319
aI350
aI372
aI373
aI377
aI379
aI385
aI387
aI397
aI398
aI399
aI400
aI403
aI409
aI410
aI411
aI412
aI413
aI414
aI417
aI420
aI422
aI430
aI432
aI442
aI463
aI472
aI473
aI474
aI475
aI477
aI500
aI501
aI502
aI503
aI504
aI505
aI507
aI508
aI510
aI512
aI521
aI538
aI544
aI550
aI565
aI572
aI579
aI580
aI619
aI647
aI648
aI681
aI682
aI684
aI685
aI718
aI721
aI725
aI726
aI728
aI731
aI734
aI735
aI736
aI737
aI807
aI810
aI814
aI819
aI820
aI823
aI827
aI828
aI830
aI831
aI832
aI834
aI835
aI836
aI837
aI838
aI843
aI844
aI850
aI851
aI852
aI853
aI854
aI855
aI856
aI857
aI858
aI859
aI860
aI861
aI862
aI864
aI865
aI867
aI869
aI871
aI880
aI881
aI913
aI914
aI915
aI916
aI917
aI919
aI920
aI921
aI922
aI926
aI927
aI928
aI932
aI933
aI934
aI935
aI936
aI937
aI939
aI940
aI941
aI942
aI943
aI944
aI947
aI951
atRp152
sS'<string>'
p153
g3
((lp154
I1
aI2
aI3
aI4
aI6
aI7
aI8
aI9
aI10
aI11
aI12
aI13
aI14
aI15
aI19
aI20
aI21
aI22
aI23
aI24
aI28
aI35
aI39
aI41
aI43
aI44
aI45
aI47
aI49
aI51
aI52
aI53
aI55
aI57
aI60
aI64
aI65
aI66
aI67
aI80
aI109
aI111
aI112
aI113
aI119
aI121
aI122
aI126
aI127
aI135
aI136
aI137
aI141
aI142
aI143
aI144
aI145
aI146
aI147
aI148
aI149
aI150
atRp155
sS'/Library/Frameworks/Python.framework/Versions/2.7/lib/python2.7/site-packages/botocore/hooks.py'
p156
g3
((lp157
I13
aI14
aI15
aI16
aI18
aI21
aI22
aI23
aI24
aI27
aI29
aI30
aI31
aI32
aI33
aI34
aI37
aI59
aI60
aI61
aI62
aI65
aI66
aI83
aI84
aI98
aI99
aI100
aI102
aI103
aI111
aI112
aI113
aI115
aI116
aI123
aI124
aI125
aI127
aI129
aI130
aI131
aI133
aI134
aI144
aI145
aI148
aI157
aI158
aI161
aI162
aI165
aI166
aI170
aI171
aI174
aI176
aI194
aI197
aI198
aI199
aI200
aI201
aI205
aI206
aI207
aI208
aI209
aI210
aI211
aI212
aI214
aI216
aI227
aI229
aI242
aI243
aI244
aI248
aI249
aI250
aI251
aI253
aI254
aI255
aI256
aI259
aI260
aI261
aI263
aI265
aI266
aI291
aI292
aI293
aI294
aI296
aI298
aI301
aI303
aI304
aI337
aI338
aI339
aI340
aI341
aI342
aI343
aI346
aI367
aI368
aI374
aI376
aI382
aI383
aI384
aI385
aI386
aI387
aI388
aI390
aI391
aI392
aI393
aI395
aI403
aI404
aI405
aI406
aI407
aI409
aI410
aI411
aI416
aI417
aI418
aI426
aI427
aI428
aI429
aI430
aI431
aI432
aI433
aI434
aI435
aI437
aI438
aI440
aI452
aI477
aI482
aI483
aI484
aI485
aI487
aI491
aI492
aI493
aI494
aI495
aI496
aI498
aI499
atRp158
sS'/Library/Frameworks/Python.framework/Versions/2.7/lib/python2.7/site-packages/concurrent/futures/process.py'
p159
g3
((lp160
I137
aI266
aI46
aI297
aI44
aI174
aI47
aI48
aI49
aI50
aI51
aI52
aI54
aI265
aI315
aI324
aI70
aI71
aI73
aI341
aI86
aI343
aI88
aI89
aI95
aI96
aI101
aI102
aI357
aI359
aI108
aI240
aI241
aI242
atRp161
sS'/Library/Frameworks/Python.framework/Versions/2.7/lib/python2.7/pickle.py'
p162
g3
((lp163
I1024
aI1026
aI1028
aI1031
aI1033
aI1197
aI1042
aI25
aI27
aI29
aI30
aI31
aI32
aI33
aI34
aI35
aI37
aI38
aI41
aI42
aI43
aI44
aI45
aI46
aI1072
aI51
aI1077
aI1079
aI56
aI58
aI59
aI60
aI62
aI66
aI1091
aI69
aI1098
aI1100
aI77
aI78
aI1103
aI1105
aI82
aI83
aI1108
aI1110
aI87
aI88
aI1113
aI90
aI1115
aI93
aI94
aI102
aI103
aI104
aI105
aI106
aI107
aI108
aI109
aI110
aI1135
aI112
aI113
aI114
aI115
aI116
aI117
aI118
aI119
aI120
aI121
aI122
aI123
aI124
aI125
aI1150
aI127
aI1152
aI129
aI1154
aI131
aI132
aI133
aI1158
aI135
aI1160
aI137
aI138
aI1163
aI140
aI141
aI142
aI144
aI145
aI1170
aI1172
aI149
aI150
aI151
aI152
aI1177
aI154
aI155
aI156
aI157
aI158
aI159
aI1184
aI162
aI165
aI166
aI1191
aI171
aI173
aI1199
aI1205
aI1207
aI1370
aI1215
aI1217
aI209
aI220
aI227
aI1254
aI1256
aI1258
aI1260
aI1263
aI1267
aI1268
aI1272
aI250
aI260
aI269
aI1340
aI333
aI337
aI345
aI346
aI1371
aI1375
aI1378
aI1383
aI1084
aI1386
aI1392
aI915
aI1396
aI1086
aI67
aI1093
aI430
aI432
aI434
aI436
aI441
aI443
aI465
aI931
aI1274
aI479
aI484
aI486
aI496
aI498
aI160
aI508
aI510
aI89
aI538
aI589
aI594
aI597
aI608
aI612
aI614
aI1128
aI646
aI657
aI658
aI661
aI111
aI696
aI1141
aI1143
aI1145
aI734
aI736
aI1147
aI467
aI126
aI128
aI776
aI777
aI778
aI779
aI130
aI783
aI1049
aI1156
aI803
aI805
aI477
aI136
aI833
aI139
aI1165
aI851
aI1168
aI876
aI883
aI885
aI887
aI889
aI893
aI895
aI898
aI900
aI1174
aI903
aI905
aI907
aI909
aI911
aI913
aI835
aI917
aI153
aI929
aI1179
aI933
aI935
aI937
aI939
aI941
aI943
aI945
aI947
aI1182
aI951
aI953
aI957
aI134
aI959
aI961
aI963
aI965
aI967
aI978
aI980
aI983
aI985
aI987
aI989
aI1189
aI992
aI994
aI997
aI999
aI1002
aI1004
aI1006
aI1008
aI1010
aI1012
aI1014
aI1016
aI1018
aI1020
aI1022
atRp164
sS'/Library/Frameworks/Python.framework/Versions/2.7/lib/python2.7/site-packages/botocore/serialize.py'
p165
g3
((lp166
I514
aI517
aI530
aI532
aI538
aI539
aI541
aI542
aI543
aI544
aI545
aI546
aI548
aI549
aI550
aI39
aI40
aI41
aI42
aI43
aI556
aI45
aI558
aI47
aI48
aI49
aI50
aI51
aI564
aI55
aI56
aI569
aI58
aI572
aI61
aI63
aI64
aI65
aI66
aI67
aI580
aI581
aI70
aI71
aI587
aI76
aI77
aI590
aI79
aI609
aI620
aI624
aI115
aI628
aI629
aI118
aI119
aI120
aI633
aI634
aI635
aI636
aI637
aI638
aI130
aI137
aI140
aI143
aI150
aI155
aI165
aI167
aI169
aI187
aI459
aI630
aI199
aI208
aI121
aI122
aI227
aI124
aI551
aI243
aI126
aI553
aI250
aI554
aI256
aI259
aI263
aI271
aI273
aI559
aI286
aI293
aI294
aI561
aI296
aI562
aI563
aI314
aI319
aI336
aI342
aI557
aI354
aI357
aI360
aI364
aI582
aI373
aI377
aI379
aI380
aI381
aI382
aI383
aI384
aI385
aI386
aI387
aI577
aI398
aI399
aI400
aI401
aI402
aI579
aI404
aI405
aI408
aI409
aI410
aI411
aI412
aI416
aI417
aI419
aI420
aI421
aI423
aI583
aI430
aI431
aI432
aI436
aI437
aI438
aI440
aI447
aI448
aI449
aI455
aI588
aI458
aI247
aI460
aI461
aI462
aI463
aI467
aI472
aI478
aI479
aI480
aI481
aI482
aI483
aI491
aI495
aI507
aI509
atRp167
sS'/Library/Frameworks/Python.framework/Versions/2.7/lib/python2.7/ctypes/macholib/__init__.py'
p168
g3
((lp169
I9
aI7
atRp170
sS'/Library/Frameworks/Python.framework/Versions/2.7/lib/python2.7/site-packages/botocore/vendored/requests/packages/urllib3/fields.py'
p171
g3
((lp172
I1
aI2
aI4
aI70
aI7
aI137
aI21
aI156
aI157
aI104
aI49
aI115
aI61
aI62
atRp173
sS'/Library/Frameworks/Python.framework/Versions/2.7/lib/python2.7/site-packages/botocore/vendored/requests/sessions.py'
p174
g3
((lp175
I520
aI10
aI11
aI12
aI13
aI15
aI16
aI17
aI530
aI19
aI20
aI21
aI22
aI24
aI25
aI27
aI29
aI543
aI544
aI545
aI34
aI37
aI550
aI39
aI553
aI554
aI93
aI562
aI563
aI564
aI567
aI570
aI573
aI576
aI579
aI582
aI97
aI75
aI588
aI591
aI594
aI597
aI91
aI604
aI605
aI607
aI96
aI609
aI99
aI633
aI635
aI637
aI638
aI643
aI648
aI653
aI654
aI656
aI657
aI659
aI664
aI674
aI539
aI204
aI546
aI92
aI229
aI42
aI267
aI278
aI281
aI282
aI283
aI286
aI291
aI295
aI300
aI303
aI308
aI311
aI314
aI317
aI321
aI324
aI330
aI333
aI334
aI335
aI338
aI340
aI343
aI346
aI387
aI388
aI389
aI390
aI391
aI392
aI393
aI394
aI395
aI396
aI397
aI398
aI399
aI400
aI469
aI479
aI489
aI499
aI510
atRp176
sS'/Library/Frameworks/Python.framework/Versions/2.7/lib/python2.7/site-packages/botocore/vendored/requests/packages/urllib3/packages/__init__.py'
p177
g3
((lp178
I1
aI3
atRp179
sS'/Library/Frameworks/Python.framework/Versions/2.7/lib/python2.7/base64.py'
p180
g3
((lp181
I57
aI54
aI55
atRp182
sS'/Library/Frameworks/Python.framework/Versions/2.7/lib/python2.7/site-packages/botocore/docs/utils.py'
p183
g3
((lp184
I13
aI14
aI17
aI38
aI64
aI80
aI81
aI82
aI85
aI86
aI87
aI88
aI100
aI101
aI102
aI103
aI104
aI106
aI110
aI131
aI137
aI138
aI149
aI150
aI151
aI153
aI154
aI155
aI156
aI157
aI159
aI169
aI170
aI171
aI172
aI173
aI175
aI183
aI184
aI185
aI186
aI187
aI188
aI191
aI193
aI196
atRp185
sS'/Library/Frameworks/Python.framework/Versions/2.7/lib/python2.7/xml/etree/ElementPath.py'
p186
g3
((lp187
I133
aI146
aI283
aI292
aI298
aI59
aI61
aI62
aI73
aI87
aI96
aI226
aI227
aI228
aI229
aI230
aI231
aI232
aI105
aI235
aI237
aI238
aI239
aI112
aI118
aI247
atRp188
sS'/Library/Frameworks/Python.framework/Versions/2.7/lib/python2.7/site-packages/cryptography/utils.py'
p189
g3
((lp190
I5
aI7
aI8
aI9
aI10
aI11
aI13
aI19
aI20
aI21
aI24
aI25
aI28
aI29
aI30
aI31
aI32
aI33
aI36
aI45
aI48
aI56
aI65
aI66
aI69
aI72
aI75
aI76
aI77
aI81
aI84
aI85
aI86
aI95
aI96
aI103
aI108
aI109
aI115
aI116
aI119
aI126
aI129
aI136
aI140
atRp191
sS'/Library/Frameworks/Python.framework/Versions/2.7/lib/python2.7/site-packages/botocore/docs/paginator.py'
p192
g3
((lp193
I76
aI45
aI14
aI13
aI16
aI17
aI20
aI21
aI26
aI15
atRp194
sS'/Library/Frameworks/Python.framework/Versions/2.7/lib/python2.7/socket.py'
p195
g3
((lp196
I256
aI260
aI262
aI265
aI266
aI271
aI272
aI273
aI274
aI281
aI282
aI283
aI285
aI286
aI287
aI290
aI291
aI292
aI294
aI297
aI344
aI348
aI349
aI350
aI366
aI367
aI369
aI370
aI371
aI372
aI373
aI191
aI192
aI193
aI194
aI411
aI412
aI413
aI415
aI416
aI417
aI418
aI419
aI420
aI422
aI424
aI200
aI202
aI190
aI447
aI448
aI449
aI450
aI451
aI199
aI456
aI201
aI458
aI459
aI460
aI461
aI462
aI463
aI464
aI466
aI469
aI470
aI471
aI477
aI478
aI479
aI480
aI228
aI485
aI487
aI489
aI490
aI491
aI493
aI494
aI500
aI251
aI252
aI253
aI254
aI255
atRp197
sS'/Library/Frameworks/Python.framework/Versions/2.7/lib/python2.7/mimetools.py'
p198
g3
((lp199
I1
aI4
aI5
aI6
aI7
aI8
aI9
aI11
aI13
aI14
aI15
aI17
aI18
aI20
aI22
aI24
aI25
aI27
aI29
aI30
aI31
aI33
aI34
aI35
aI36
aI37
aI42
aI43
aI44
aI45
aI46
aI47
aI48
aI50
aI51
aI52
aI53
aI68
aI71
aI79
aI87
aI92
aI95
aI98
aI107
aI108
aI111
aI112
aI114
aI115
aI123
aI125
aI157
aI176
aI204
aI206
aI207
aI208
aI209
aI210
aI211
aI212
aI215
aI216
aI217
aI218
aI219
aI220
aI221
aI224
aI229
aI239
aI245
atRp200
sS'/Library/Frameworks/Python.framework/Versions/2.7/lib/python2.7/site-packages/botocore/vendored/requests/certs.py'
p201
g3
((lp202
I13
aI14
aI16
aI17
aI24
atRp203
sS'/Library/Frameworks/Python.framework/Versions/2.7/lib/python2.7/email/__init__.py'
p204
g3
((lp205
I79
aI80
aI81
aI82
atRp206
sS'/Library/Frameworks/Python.framework/Versions/2.7/lib/python2.7/site-packages/botocore/endpoint.py'
p207
g3
((lp208
I15
aI16
aI17
aI18
aI20
aI21
aI22
aI23
aI24
aI26
aI27
aI28
aI29
aI30
aI31
aI32
aI33
aI34
aI35
aI38
aI39
aI40
aI41
aI42
aI44
aI45
aI46
aI51
aI67
aI68
aI69
aI70
aI71
aI74
aI76
aI78
aI82
aI83
aI86
aI91
aI92
aI93
aI94
aI98
aI100
aI101
aI103
aI110
aI119
aI122
aI123
aI124
aI125
aI126
aI127
aI128
aI129
aI131
aI132
aI133
aI134
aI135
aI136
aI137
aI138
aI140
aI142
aI145
aI146
aI147
aI148
aI150
aI151
aI152
aI153
aI154
aI155
aI156
aI157
aI158
aI159
aI161
aI163
aI164
aI165
aI167
aI168
aI169
aI171
aI172
aI173
aI174
aI175
aI176
aI177
aI189
aI190
aI192
aI194
aI195
aI198
aI200
aI206
aI207
aI208
aI209
aI210
aI211
aI212
aI213
aI215
aI216
aI217
aI219
aI220
aI221
aI222
aI246
aI248
aI250
aI251
aI253
aI254
aI255
aI256
aI257
aI258
aI260
aI263
aI267
aI268
aI269
aI270
aI271
aI272
aI273
aI274
aI275
aI276
aI286
aI287
aI288
aI291
aI292
aI293
aI294
aI295
aI298
aI299
aI300
aI301
aI302
aI303
aI304
aI305
aI306
aI307
aI308
aI310
aI313
aI315
aI322
aI326
atRp209
sS'/Library/Frameworks/Python.framework/Versions/2.7/lib/python2.7/stringprep.py'
p210
g3
((lp211
I6
aI8
aI10
aI12
aI19
aI20
aI24
aI25
aI26
aI27
aI28
aI29
aI30
aI31
aI32
aI33
aI34
aI35
aI36
aI37
aI38
aI39
aI40
aI41
aI42
aI43
aI44
aI45
aI46
aI47
aI48
aI49
aI50
aI51
aI52
aI53
aI54
aI55
aI56
aI57
aI58
aI59
aI60
aI61
aI62
aI63
aI64
aI65
aI66
aI67
aI68
aI69
aI70
aI71
aI72
aI73
aI74
aI75
aI76
aI77
aI78
aI79
aI80
aI81
aI82
aI83
aI84
aI85
aI86
aI87
aI88
aI89
aI90
aI91
aI92
aI93
aI94
aI95
aI96
aI97
aI98
aI99
aI100
aI101
aI102
aI103
aI104
aI105
aI106
aI107
aI108
aI109
aI110
aI111
aI112
aI113
aI114
aI115
aI116
aI117
aI118
aI119
aI120
aI121
aI122
aI123
aI124
aI125
aI126
aI127
aI128
aI129
aI130
aI131
aI132
aI133
aI134
aI135
aI136
aI137
aI138
aI139
aI140
aI141
aI142
aI143
aI144
aI145
aI146
aI147
aI148
aI149
aI150
aI151
aI152
aI153
aI154
aI155
aI156
aI157
aI158
aI159
aI160
aI161
aI162
aI163
aI164
aI165
aI166
aI167
aI168
aI169
aI170
aI171
aI172
aI173
aI174
aI175
aI176
aI177
aI178
aI179
aI180
aI181
aI182
aI183
aI184
aI185
aI186
aI187
aI189
aI195
aI206
aI210
aI213
aI217
aI220
aI221
aI227
aI232
aI236
aI243
aI247
aI248
aI252
aI253
aI257
aI258
aI262
aI263
aI267
aI271
atRp212
sS'/Library/Frameworks/Python.framework/Versions/2.7/lib/python2.7/site-packages/s3transfer/futures.py'
p213
g3
((lp214
I512
aI517
aI518
aI13
aI14
aI15
aI16
aI17
aI18
aI20
aI21
aI534
aI23
aI24
aI27
aI540
aI30
aI31
aI546
aI549
aI552
aI559
aI561
aI562
aI55
aI62
aI78
aI525
aI82
aI91
aI92
aI93
aI99
aI529
aI104
aI109
aI114
aI119
aI129
aI130
aI131
aI22
aI145
aI149
aI153
aI166
aI171
aI189
aI204
aI217
aI236
aI253
aI257
aI261
aI269
aI296
aI50
aI304
aI309
aI314
aI321
aI327
aI340
aI348
aI356
aI360
aI369
aI370
aI372
aI373
aI404
aI441
aI445
aI446
aI459
aI462
aI476
aI480
aI481
aI482
aI485
aI488
aI492
aI493
aI494
aI508
atRp215
sS'/Library/Frameworks/Python.framework/Versions/2.7/lib/python2.7/site-packages/botocore/validate.py'
p216
g3
((lp217
I14
aI16
aI17
aI18
aI19
aI21
aI22
aI23
aI26
aI52
aI53
aI54
aI55
aI56
aI58
aI59
aI64
aI66
aI67
aI70
aI71
aI72
aI73
aI74
aI78
aI83
aI84
aI85
aI87
aI88
aI90
aI92
aI98
aI129
aI137
aI141
aI142
aI144
aI158
aI159
aI160
aI162
aI163
aI166
aI167
aI168
aI171
aI172
aI174
aI182
aI185
aI186
aI189
aI190
aI192
aI193
aI197
aI199
aI200
aI201
aI203
aI213
aI215
aI217
aI218
aI219
aI220
aI222
aI231
aI233
aI235
aI246
aI250
aI254
aI256
aI260
aI270
aI280
aI281
aI282
aI283
aI285
aI286
aI287
aI288
aI289
aI290
aI292
aI293
atRp218
sS'/Library/Frameworks/Python.framework/Versions/2.7/lib/python2.7/site-packages/botocore/credentials.py'
p219
g3
((lp220
I1024
aI1027
aI1028
aI1029
aI1030
aI1031
aI1032
aI1033
aI1034
aI1035
aI1036
aI14
aI15
aI1040
aI17
aI18
aI19
aI1044
aI21
aI22
aI23
aI24
aI25
aI1050
aI27
aI28
aI1054
aI31
aI32
aI33
aI34
aI35
aI36
aI37
aI38
aI39
aI40
aI41
aI42
aI1067
aI1068
aI1069
aI46
aI47
aI48
aI51
aI59
aI60
aI61
aI62
aI63
aI64
aI65
aI67
aI68
aI69
aI70
aI71
aI72
aI74
aI75
aI1100
aI77
aI78
aI1103
aI80
aI1105
aI1106
aI1108
aI85
aI1110
aI87
aI1112
aI1113
aI1114
aI91
aI1116
aI94
aI95
aI96
aI97
aI98
aI101
aI102
aI103
aI1141
aI1142
aI20
aI123
aI124
aI1149
aI1045
aI192
aI1156
aI1046
aI136
aI1047
aI194
aI142
aI150
aI1049
aI165
aI1190
aI1191
aI1194
aI1195
aI1196
aI1204
aI1205
aI1206
aI1208
aI1209
aI1210
aI1211
aI1212
aI190
aI1215
aI1216
aI1056
aI1218
aI197
aI201
aI210
aI224
aI229
aI1258
aI551
aI238
aI240
aI241
aI242
aI243
aI244
aI246
aI1065
aI248
aI250
aI252
aI1066
aI259
aI260
aI262
aI263
aI264
aI265
aI268
aI43
aI1301
aI278
aI281
aI1071
aI284
aI288
aI1314
aI1320
aI301
aI305
aI317
aI326
aI330
aI339
aI1422
aI343
aI1368
aI1372
aI352
aI356
aI1383
aI360
aI1392
aI1403
aI1418
aI1419
aI1420
aI398
aI184
aI1093
aI1435
aI1449
aI427
aI1099
aI76
aI1038
aI460
aI1101
aI464
aI473
aI79
aI1104
aI1506
aI763
aI1508
aI1509
aI16
aI1511
aI1039
aI1513
aI1514
aI1515
aI1516
aI1517
aI1518
aI1519
aI1521
aI1527
aI84
aI1109
aI515
aI516
aI86
aI1544
aI1111
aI527
aI1552
aI88
aI535
aI536
aI90
aI543
aI546
aI1571
aI1575
aI1576
aI554
aI557
aI1582
aI1584
aI394
aI579
aI1604
aI590
aI593
aI1621
aI600
aI602
aI603
aI1636
aI1648
aI1654
aI1660
aI1661
aI1662
aI1663
aI1664
aI661
aI683
aI689
aI703
aI714
aI716
aI724
aI726
aI729
aI1487
aI1148
aI748
aI749
aI750
aI751
aI752
aI756
aI759
aI761
aI127
aI764
aI765
aI766
aI767
aI769
aI1153
aI789
aI132
aI1499
aI511
aI820
aI829
aI830
aI831
aI833
aI834
aI836
aI1507
aI857
aI858
aI859
aI860
aI861
aI864
aI865
aI867
aI1510
aI878
aI879
aI880
aI881
aI883
aI885
aI886
aI888
aI889
aI890
aI891
aI903
aI905
aI30
aI909
aI928
aI930
aI968
aI969
aI970
aI972
aI973
aI974
aI976
aI977
aI978
aI979
aI980
aI981
aI982
aI984
aI1002
aI1003
aI1004
aI1006
aI1007
aI1011
aI1013
aI1014
aI1015
aI1017
aI1018
aI1019
aI1020
aI1022
aI1023
atRp221
sS'/Library/Frameworks/Python.framework/Versions/2.7/lib/python2.7/site-packages/cryptography/hazmat/backends/multibackend.py'
p222
g3
((lp223
I260
aI5
aI7
aI8
aI9
aI272
aI17
aI18
aI19
aI20
aI21
aI22
aI23
aI24
aI25
aI26
aI27
aI28
aI29
aI30
aI31
aI33
aI297
aI43
aI303
aI48
aI54
aI312
aI321
aI66
aI330
aI78
aI339
aI84
aI284
aI348
aI96
aI357
aI102
aI366
aI114
aI375
aI120
aI384
aI135
aI393
aI141
aI402
aI149
aI155
aI162
aI411
aI420
aI169
aI429
aI175
aI181
aI438
aI187
aI447
aI193
aI199
aI456
aI205
aI465
aI211
aI217
aI474
aI223
aI484
aI232
aI493
aI238
aI502
aI248
aI511
atRp224
sS'/Library/Frameworks/Python.framework/Versions/2.7/lib/python2.7/site-packages/botocore/vendored/requests/packages/urllib3/packages/ordered_dict.py'
p225
g3
((lp226
I257
aI5
aI6
aI10
aI11
aI16
aI17
aI28
aI34
aI36
aI37
aI38
aI39
aI40
aI41
aI42
aI44
aI48
aI49
aI50
aI51
aI52
aI54
aI58
aI59
aI60
aI61
aI63
aI65
aI66
aI67
aI68
aI69
aI71
aI79
aI91
aI116
aI120
aI124
aI126
aI128
aI132
aI137
aI142
aI151
aI154
aI156
aI158
aI159
aI161
aI164
aI168
aI170
aI173
aI175
aI177
aI182
aI183
aI184
aI185
aI190
aI197
aI210
aI220
aI224
aI225
aI235
aI244
aI249
aI253
atRp227
sS'/Library/Frameworks/Python.framework/Versions/2.7/lib/python2.7/ssl.py'
p228
g3
((lp229
I544
aI545
aI546
aI573
aI575
aI579
aI580
aI581
aI584
aI587
aI589
aI590
aI591
aI592
aI595
aI596
aI602
aI604
aI605
aI606
aI607
aI609
aI610
aI611
aI612
aI613
aI614
aI617
aI625
aI638
aI641
aI652
aI653
aI655
aI656
aI659
aI660
aI685
aI686
aI687
aI718
aI719
aI720
aI209
aI210
aI724
aI213
aI214
aI215
aI217
aI218
aI734
aI227
aI228
aI233
aI236
aI750
aI751
aI752
aI756
aI757
aI758
aI759
aI248
aI761
aI251
aI252
aI766
aI725
aI768
aI772
aI263
aI267
aI268
aI269
aI270
aI271
aI272
aI273
aI821
aI822
aI823
aI825
aI841
aI842
aI843
aI844
aI846
aI848
aI850
aI353
aI354
aI355
aI356
aI359
aI365
aI366
aI367
aI368
aI369
aI907
aI910
aI760
aI249
aI767
atRp230
sS'/Library/Frameworks/Python.framework/Versions/2.7/lib/python2.7/site-packages/jmespath/exceptions.py'
p231
g3
((lp232
I1
aI4
aI5
aI8
aI9
aI10
aI12
aI21
aI31
aI32
aI33
aI39
aI47
aI48
aI49
aI59
aI65
aI66
aI67
aI73
aI81
aI88
aI89
aI90
aI99
aI100
aI101
aI108
aI115
aI116
aI121
aI122
atRp233
sS'/Library/Frameworks/Python.framework/Versions/2.7/lib/python2.7/functools.py'
p234
g3
((lp235
I32
aI33
aI34
aI35
aI37
aI50
aI51
atRp236
sS'/Library/Frameworks/Python.framework/Versions/2.7/lib/python2.7/shlex.py'
p237
g3
((lp238
I2
aI10
aI11
aI12
aI14
aI15
aI19
aI21
aI22
aI23
aI24
aI25
aI26
aI27
aI28
aI32
aI33
aI34
aI37
aI38
aI40
aI41
aI43
aI44
aI45
aI46
aI47
aI48
aI49
aI50
aI51
aI52
aI53
aI54
aI55
aI59
aI65
aI79
aI88
aI90
aI96
aI98
aI106
aI107
aI108
aI113
aI118
aI120
aI121
aI122
aI123
aI124
aI125
aI127
aI130
aI131
aI132
aI133
aI134
aI137
aI144
aI147
aI150
aI151
aI152
aI166
aI186
aI199
aI200
aI201
aI202
aI203
aI204
aI206
aI207
aI208
aI211
aI220
aI222
aI225
aI226
aI227
aI237
aI238
aI239
aI240
aI241
aI246
aI248
aI257
aI265
aI266
aI268
aI269
aI270
aI271
aI272
aI274
aI275
aI276
aI277
aI278
aI279
aI281
atRp239
sS'/Library/Frameworks/Python.framework/Versions/2.7/lib/python2.7/bisect.py'
p240
g3
((lp241
I1
aI67
aI45
aI47
aI3
aI22
aI24
aI89
aI90
atRp242
sS'/Library/Frameworks/Python.framework/Versions/2.7/lib/python2.7/site-packages/botocore/client.py'
p243
g3
((lp244
I13
aI14
aI16
aI17
aI18
aI19
aI20
aI21
aI22
aI23
aI24
aI25
aI26
aI27
aI28
aI29
aI30
aI31
aI32
aI33
aI34
aI35
aI36
aI39
aI40
aI43
aI44
aI47
aI48
aI51
aI52
aI53
aI54
aI55
aI56
aI57
aI58
aI59
aI61
aI62
aI63
aI64
aI65
aI66
aI67
aI68
aI69
aI70
aI71
aI72
aI73
aI74
aI75
aI76
aI77
aI78
aI79
aI80
aI81
aI82
aI84
aI88
aI89
aI90
aI91
aI92
aI93
aI94
aI95
aI96
aI97
aI98
aI100
aI101
aI102
aI103
aI104
aI106
aI107
aI111
aI112
aI115
aI116
aI117
aI118
aI121
aI122
aI123
aI124
aI125
aI126
aI127
aI129
aI131
aI133
aI134
aI135
aI136
aI140
aI146
aI147
aI149
aI151
aI152
aI154
aI155
aI156
aI157
aI158
aI159
aI161
aI164
aI165
aI169
aI170
aI173
aI177
aI185
aI189
aI193
aI195
aI197
aI202
aI203
aI226
aI231
aI232
aI233
aI239
aI240
aI241
aI246
aI247
aI248
aI249
aI255
aI256
aI258
aI272
aI273
aI276
aI279
aI280
aI281
aI282
aI283
aI284
aI285
aI287
aI288
aI289
aI290
aI291
aI292
aI293
aI295
aI298
aI299
aI300
aI301
aI302
aI304
aI306
aI310
aI314
aI316
aI319
aI320
aI321
aI322
aI323
aI324
aI325
aI326
aI328
aI329
aI332
aI341
aI343
aI345
aI346
aI347
aI348
aI349
aI350
aI351
aI352
aI354
aI355
aI356
aI357
aI358
aI359
aI360
aI361
aI366
aI367
aI368
aI373
aI375
aI376
aI377
aI378
aI384
aI385
aI386
aI387
aI388
aI389
aI390
aI391
aI392
aI393
aI394
aI396
aI397
aI403
aI404
aI408
aI410
aI411
aI412
aI414
aI416
aI425
aI445
aI448
aI449
aI450
aI451
aI452
aI453
aI454
aI455
aI458
aI459
aI460
aI463
aI465
aI467
aI471
aI474
aI476
aI477
aI478
aI489
aI490
aI491
aI494
aI496
aI497
aI498
aI499
aI503
aI504
aI505
aI506
aI518
aI526
aI528
aI531
aI532
aI533
aI534
aI535
aI536
aI537
aI538
aI539
aI540
aI541
aI542
aI543
aI545
aI558
aI560
aI561
aI562
aI564
aI566
aI568
aI569
aI570
aI571
aI572
aI573
aI574
aI576
aI579
aI580
aI581
aI582
aI583
aI585
aI586
aI588
aI589
aI590
aI591
aI592
aI593
aI595
aI598
aI599
aI601
aI602
aI603
aI604
aI605
aI606
aI609
aI614
aI617
aI618
aI619
aI620
aI621
aI622
aI623
aI624
aI625
aI627
aI630
aI635
aI636
aI637
aI638
aI639
aI640
aI643
aI644
aI645
aI646
aI647
aI648
aI649
aI651
aI708
aI735
aI747
aI770
aI781
aI787
aI792
aI803
aI805
aI807
aI808
aI809
aI810
aI811
aI812
aI814
aI816
aI818
aI820
aI822
aI826
aI828
aI830
aI834
aI836
aI839
aI848
aI852
aI855
aI856
aI864
atRp245
sS'/Library/Frameworks/Python.framework/Versions/2.7/lib/python2.7/site-packages/concurrent/futures/thread.py'
p246
g3
((lp247
I4
aI134
aI7
aI8
aI9
aI10
aI11
aI13
aI29
aI30
aI32
aI6
aI41
aI43
aI44
aI50
aI62
aI84
aI85
aI98
aI109
aI111
aI127
atRp248
sS'/Library/Frameworks/Python.framework/Versions/2.7/lib/python2.7/site-packages/botocore/translate.py'
p249
g3
((lp250
I70
aI71
aI72
aI74
aI76
aI14
aI16
aI20
aI21
aI22
aI30
aI31
aI33
aI35
aI36
aI38
aI41
aI59
atRp251
sS'/Library/Frameworks/Python.framework/Versions/2.7/lib/python2.7/site-packages/botocore/vendored/requests/packages/urllib3/util/timeout.py'
p252
g3
((lp253
I128
aI3
aI4
aI6
aI136
aI138
aI12
aI16
aI19
aI152
aI154
aI166
aI167
aI169
aI175
aI177
aI178
aI180
aI10
aI193
aI228
aI203
aI204
aI211
aI89
aI92
aI94
aI95
aI96
aI97
aI98
aI100
aI104
aI237
aI240
aI115
aI118
aI119
aI121
aI122
aI127
atRp254
sS'/Library/Frameworks/Python.framework/Versions/2.7/lib/python2.7/site-packages/s3transfer/tasks.py'
p255
g3
((lp256
I139
aI13
aI14
aI16
aI19
aI22
aI280
aI27
aI28
aI29
aI30
aI163
aI292
aI171
aI157
aI184
aI319
aI320
aI321
aI205
aI79
aI344
aI345
aI346
aI92
aI97
aI227
aI232
aI233
aI112
aI104
atRp257
sS'/Library/Frameworks/Python.framework/Versions/2.7/lib/python2.7/site-packages/botocore/eventstream.py'
p258
g3
((lp259
I13
aI15
aI16
aI17
aI20
aI21
aI22
aI25
aI26
aI27
aI30
aI31
aI32
aI549
aI550
aI39
aI557
aI46
aI47
aI48
aI565
aI55
aI56
aI57
aI573
aI64
aI70
aI72
aI73
aI74
aI75
aI76
aI77
aI78
aI81
aI82
aI83
aI84
aI87
aI100
aI113
aI126
aI139
aI153
aI167
aI181
aI182
aI206
aI207
aI37
aI38
aI230
aI242
aI257
aI265
aI266
aI267
aI272
aI283
aI295
aI306
aI307
aI308
aI314
aI324
aI330
aI334
aI336
aI338
aI340
aI342
aI344
aI346
aI348
aI350
aI352
aI354
aI357
aI360
aI373
aI382
aI387
aI392
aI397
aI404
aI408
aI413
aI415
aI420
aI428
aI435
aI444
aI448
aI453
aI459
aI464
aI470
aI478
aI483
aI500
aI503
aI507
atRp260
sS'/Library/Frameworks/Python.framework/Versions/2.7/lib/python2.7/subprocess.py'
p261
g3
((lp262
I1024
aI1025
aI1028
aI854
aI1030
aI1032
aI1034
aI87
aI1038
aI1040
aI88
aI1050
aI1051
aI1052
aI1053
aI31
aI1056
aI33
aI34
aI1059
aI36
aI37
aI38
aI39
aI40
aI41
aI1067
aI1068
aI50
aI51
aI1076
aI55
aI59
aI1091
aI1094
aI72
aI73
aI1098
aI75
aI78
aI79
aI867
aI84
aI1110
aI1111
aI1112
aI90
aI1115
aI100
aI101
aI105
aI107
aI108
aI118
aI119
aI122
aI123
aI124
aI125
aI136
aI164
aI172
aI175
aI1209
aI194
aI944
aI1058
aI227
aI1148
aI843
aI1266
aI1271
aI1276
aI1282
aI44
aI900
aI794
aI798
aI799
aI800
aI801
aI803
aI804
aI297
aI1323
aI814
aI815
aI825
aI826
aI1340
aI841
aI842
aI331
aI332
aI846
aI847
aI848
aI337
aI338
aI852
aI853
aI342
aI345
aI859
aI865
aI866
aI355
aI868
aI358
aI871
aI362
aI363
aI364
aI365
aI366
aI367
aI888
aI889
aI386
aI388
aI389
aI390
aI391
aI392
aI393
aI394
aI908
aI911
aI913
aI918
aI919
aI921
aI410
aI928
aI929
aI418
aI931
aI932
aI936
aI937
aI938
aI943
aI432
aI438
aI1097
aI442
aI74
aI446
aI447
aI1099
aI452
aI930
aI334
aI420
aI335
aI336
aI486
aI340
aI492
aI425
aI1016
aI1017
aI1020
aI1023
atRp263
sS'/Library/Frameworks/Python.framework/Versions/2.7/lib/python2.7/site-packages/pyasn1/codec/der/__init__.py'
p264
g3
((lp265
I1
atRp266
sS'/Library/Frameworks/Python.framework/Versions/2.7/lib/python2.7/xml/etree/ElementTree.py'
p267
g3
((lp268
I1029
aI1037
aI1039
aI1040
aI1041
aI1042
aI1044
aI1045
aI1047
aI1050
aI1055
aI1061
aI1063
aI1067
aI1069
aI1071
aI1073
aI1077
aI1079
aI1080
aI1082
aI59
aI60
aI61
aI62
aI63
aI64
aI65
aI66
aI67
aI68
aI69
aI70
aI71
aI72
aI75
aI1120
aI1121
aI1122
aI99
aI100
aI101
aI1126
aI1127
aI104
aI106
aI111
aI116
aI1141
aI123
aI126
aI127
aI1160
aI138
aI139
aI150
aI1180
aI171
aI1196
aI177
aI1210
aI187
aI1212
aI195
aI203
aI207
aI208
aI209
aI210
aI211
aI212
aI214
aI224
aI225
aI233
aI1259
aI247
aI248
aI250
aI897
aI265
aI266
aI1295
aI275
aI1308
aI289
aI300
aI302
aI310
aI1344
aI1356
aI335
aI346
aI1376
aI1378
aI1084
aI362
aI1394
aI1086
aI1399
aI377
aI1088
aI389
aI1417
aI1090
aI401
aI1428
aI409
aI1444
aI1094
aI424
aI1453
aI434
aI1468
aI445
aI1470
aI455
aI456
aI471
aI472
aI474
aI475
aI476
aI477
aI478
aI481
aI1519
aI498
aI1525
aI528
aI1532
aI511
aI1543
aI527
aI1552
aI529
aI530
aI531
aI532
aI1562
aI1565
aI1568
aI546
aI1576
aI1584
aI561
aI568
aI580
aI581
aI585
aI587
aI589
aI1123
aI1124
aI605
aI607
aI609
aI610
aI1639
aI619
aI1648
aI629
aI1655
aI1667
aI644
aI1677
aI1680
aI1681
aI1683
aI1684
aI671
aI676
aI694
aI718
aI739
aI761
aI1324
aI789
aI790
aI791
aI792
aI794
aI795
aI799
aI800
aI803
aI804
aI809
aI810
aI813
aI816
aI817
aI819
aI820
aI821
aI824
aI831
aI835
aI838
aI839
aI842
aI843
aI845
aI847
aI848
aI862
aI868
aI873
aI874
aI877
aI878
aI879
aI882
aI883
aI884
aI887
aI888
aI890
aI891
aI892
aI894
aI895
aI320
aI899
aI900
aI901
aI902
aI904
aI907
aI908
aI914
aI915
aI916
aI917
aI926
aI927
aI929
aI932
aI933
aI934
aI935
aI936
aI937
aI938
aI939
aI940
aI942
aI943
aI946
aI947
aI949
aI950
aI954
aI1004
aI1010
aI1011
aI1012
aI1013
aI1125
atRp269
sS'/Library/Frameworks/Python.framework/Versions/2.7/lib/python2.7/site-packages/botocore/docs/bcdoc/__init__.py'
p270
g3
((lp271
I13
atRp272
sS'/Library/Frameworks/Python.framework/Versions/2.7/lib/python2.7/site-packages/s3transfer/delete.py'
p273
g3
((lp274
I13
aI14
aI17
aI18
aI20
aI56
aI57
atRp275
sS'/Library/Frameworks/Python.framework/Versions/2.7/lib/python2.7/site-packages/pyasn1/codec/ber/__init__.py'
p276
g3
((lp277
I1
atRp278
sS'/Library/Frameworks/Python.framework/Versions/2.7/lib/python2.7/gettext.py'
p279
g3
((lp280
I512
aI513
aI514
aI515
aI517
aI518
aI521
aI522
aI523
aI524
aI525
aI530
aI539
aI540
aI541
aI542
aI543
aI545
aI604
aI605
aI606
aI607
aI608
aI642
aI499
aI244
aI206
aI207
aI208
aI209
aI210
aI212
aI213
aI214
aI219
aI220
aI221
aI222
aI223
aI224
aI226
aI227
aI228
aI229
aI230
aI231
aI233
aI234
aI235
aI236
aI237
aI238
aI239
aI240
aI241
aI242
aI243
aI500
aI501
aI502
aI503
aI504
aI505
aI506
aI507
aI508
aI509
aI511
atRp281
sS'/Library/Frameworks/Python.framework/Versions/2.7/lib/python2.7/site-packages/botocore/errorfactory.py'
p282
g3
((lp283
I76
aI13
aI14
aI17
aI18
aI20
aI30
aI46
aI56
aI57
aI58
aI60
atRp284
sS'/Library/Frameworks/Python.framework/Versions/2.7/lib/python2.7/site-packages/dateutil/relativedelta.py'
p285
g3
((lp286
I512
aI2
aI3
aI5
aI6
aI8
aI9
aI11
aI14
aI527
aI17
aI18
aI19
aI21
aI278
aI281
aI27
aI285
aI35
aI295
aI42
aI45
aI330
aI15
aI116
aI118
aI119
aI120
aI121
aI122
aI123
aI392
aI395
aI398
aI418
aI436
aI454
aI456
aI475
aI477
aI245
aI504
aI507
aI510
atRp287
sS'/Library/Frameworks/Python.framework/Versions/2.7/lib/python2.7/site-packages/concurrent/futures/_base.py'
p288
g3
((lp289
I515
aI4
aI5
aI6
aI7
aI8
aI10
aI12
aI13
aI14
aI15
aI18
aI19
aI21
aI23
aI24
aI537
aI538
aI27
aI540
aI29
aI30
aI31
aI34
aI35
aI36
aI37
aI38
aI551
aI43
aI45
aI46
aI47
aI49
aI50
aI51
aI53
aI54
aI55
aI57
aI58
aI59
aI63
aI66
aI69
aI72
aI73
aI75
aI589
aI79
aI84
aI89
aI602
aI605
aI94
aI95
aI97
aI101
aI105
aI109
aI110
aI112
aI118
aI124
aI128
aI135
aI139
aI140
aI142
aI145
aI149
aI153
aI28
aI174
aI233
aI234
aI235
aI530
aI39
aI284
aI285
aI287
aI297
aI304
aI321
aI340
aI345
aI350
aI355
aI361
aI378
aI409
aI442
aI462
aI502
atRp290
sS'/Library/Frameworks/Python.framework/Versions/2.7/lib/python2.7/site-packages/boto3/docs/method.py'
p291
g3
((lp292
I66
aI13
aI18
aI19
aI20
aI21
atRp293
sS'/Library/Frameworks/Python.framework/Versions/2.7/lib/python2.7/markupbase.py'
p294
g3
((lp295
I261
aI7
aI9
aI395
aI12
aI13
aI14
aI147
aI21
aI24
aI26
aI28
aI33
aI37
aI169
aI49
aI183
aI318
aI65
aI11
aI341
aI19
aI62
aI41
aI377
aI250
atRp296
sS'/Library/Frameworks/Python.framework/Versions/2.7/lib/python2.7/site-packages/s3transfer/copies.py'
p297
g3
((lp298
I257
aI260
aI13
aI270
aI271
aI16
aI17
aI18
aI19
aI20
aI21
aI22
aI23
aI26
aI27
aI29
aI30
aI31
aI32
aI33
aI34
aI291
aI292
aI293
aI41
aI42
aI43
aI44
aI45
aI46
aI47
aI48
aI49
aI50
aI51
aI55
aI56
aI57
aI58
aI59
aI60
aI61
aI62
aI66
aI69
aI269
aI14
aI123
aI148
aI35
aI36
aI37
aI241
aI252
atRp299
sS'/Library/Frameworks/Python.framework/Versions/2.7/lib/python2.7/site-packages/dateutil/tz/tz.py'
p300
g3
((lp301
I9
aI10
aI11
aI12
aI13
aI14
aI16
aI17
aI19
aI20
aI533
aI22
aI24
aI25
aI26
aI539
aI28
aI29
aI31
aI33
aI546
aI36
aI39
aI43
aI558
aI47
aI50
aI53
aI568
aI58
aI571
aI62
aI577
aI579
aI68
aI72
aI524
aI76
aI79
aI84
aI87
aI88
aI95
aI609
aI104
aI110
aI114
aI21
aI649
aI653
aI655
aI145
aI150
aI664
aI153
aI156
aI671
aI160
aI162
aI166
aI174
aI184
aI187
aI193
aI708
aI199
aI714
aI204
aI721
aI725
aI728
aI731
aI732
aI750
aI753
aI763
aI779
aI56
aI574
aI897
aI900
aI901
aI902
aI65
aI908
aI665
aI417
aI442
aI159
aI450
aI469
aI475
aI482
aI485
aI488
aI494
aI495
aI496
aI497
atRp302
sS'/Library/Frameworks/Python.framework/Versions/2.7/lib/python2.7/site-packages/botocore/vendored/requests/packages/urllib3/util/__init__.py'
p303
g3
((lp304
I2
aI3
aI4
aI5
aI13
aI18
aI19
atRp305
sS'/Library/Frameworks/Python.framework/Versions/2.7/lib/python2.7/site-packages/botocore/loaders.py'
p306
g3
((lp307
I103
aI104
aI105
aI107
aI108
aI109
aI110
aI111
aI114
aI117
aI126
aI127
aI128
aI129
aI130
aI132
aI133
aI134
aI135
aI138
aI143
aI144
aI154
aI156
aI166
aI167
aI168
aI172
aI173
aI174
aI175
aI178
aI192
aI193
aI202
aI210
aI211
aI213
aI215
aI216
aI217
aI219
aI220
aI221
aI222
aI223
aI224
aI225
aI226
aI229
aI230
aI231
aI232
aI234
aI235
aI236
aI238
aI240
aI242
aI244
aI246
aI248
aI267
aI268
aI275
aI276
aI277
aI278
aI279
aI280
aI281
aI282
aI283
aI284
aI285
aI286
aI287
aI289
aI310
aI312
aI327
aI328
aI329
aI330
aI331
aI332
aI336
aI337
aI338
aI340
aI342
aI343
aI374
aI375
aI379
aI380
aI381
aI382
aI383
aI386
aI387
aI389
aI391
aI393
aI394
aI395
aI397
aI398
aI399
aI400
aI402
aI419
aI420
aI421
aI422
aI424
aI426
aI427
aI430
aI431
aI432
aI433
aI434
aI435
aI436
aI438
aI439
aI444
aI445
aI446
aI455
aI458
atRp308
sS'/Library/Frameworks/Python.framework/Versions/2.7/lib/python2.7/copy.py'
p309
g3
((lp310
I72
aI74
aI75
aI76
aI78
aI79
aI80
aI82
aI83
aI86
aI87
aI88
aI90
aI91
aI94
aI96
aI114
aI151
aI152
aI154
aI155
aI156
aI159
aI161
aI162
aI163
aI165
aI166
aI169
aI172
aI173
aI176
aI177
aI180
aI181
aI182
aI190
aI192
aI193
aI194
aI199
aI227
aI228
aI229
aI230
aI231
aI235
aI236
aI237
aI238
aI239
aI240
aI241
aI242
aI243
aI244
aI245
aI246
aI249
aI250
aI254
aI255
aI256
aI257
aI258
aI277
aI278
aI279
aI281
aI307
aI309
aI310
aI311
aI312
aI313
aI314
aI315
aI318
aI319
aI322
aI323
aI326
aI327
aI328
aI329
aI330
aI332
aI348
aI353
aI359
atRp311
sS'/Library/Frameworks/Python.framework/Versions/2.7/lib/python2.7/HTMLParser.py'
p312
g3
((lp313
I1
aI258
aI11
aI12
aI270
aI16
aI17
aI19
aI20
aI22
aI23
aI24
aI282
aI29
aI31
aI33
aI34
aI37
aI50
aI51
aI54
aI57
aI58
aI60
aI66
aI75
aI334
aI93
aI95
aI98
aI102
aI366
aI119
aI123
aI126
aI128
aI132
aI136
aI143
aI110
aI406
aI411
aI415
aI419
aI423
aI427
aI431
aI435
aI439
aI442
aI446
aI447
aI237
atRp314
sS'/Library/Frameworks/Python.framework/Versions/2.7/lib/python2.7/multiprocessing/__init__.py'
p315
g3
((lp316
I192
aI138
aI147
aI154
aI161
aI171
aI44
aI178
aI47
aI48
aI49
aI50
aI51
aI52
aI55
aI185
aI266
aI62
aI64
aI65
aI71
aI72
aI74
aI75
aI77
aI206
aI80
aI81
aI84
aI78
aI90
aI220
aI199
aI227
aI102
aI234
aI109
aI61
aI241
aI248
aI255
aI213
atRp317
sS'/Library/Frameworks/Python.framework/Versions/2.7/lib/python2.7/site-packages/botocore/signers.py'
p318
g3
((lp319
I13
aI14
aI15
aI16
aI529
aI18
aI19
aI20
aI533
aI22
aI23
aI24
aI25
aI28
aI61
aI62
aI64
aI65
aI66
aI67
aI68
aI71
aI73
aI77
aI81
aI596
aI85
aI600
aI601
aI90
aI92
aI93
aI530
aI120
aI121
aI123
aI124
aI126
aI21
aI130
aI131
aI132
aI534
aI134
aI135
aI138
aI139
aI140
aI141
aI142
aI144
aI147
aI148
aI156
aI158
aI168
aI169
aI170
aI172
aI174
aI175
aI176
aI179
aI180
aI181
aI182
aI184
aI192
aI195
aI715
aI214
aI217
aI218
aI225
aI226
aI227
aI228
aI229
aI230
aI232
aI233
aI234
aI235
aI238
aI241
aI242
aI127
aI272
aI133
aI294
aI296
aI311
aI346
aI351
aI391
aI398
aI402
aI453
aI454
aI457
aI458
aI459
aI597
atRp320
sS'/Library/Frameworks/Python.framework/Versions/2.7/lib/python2.7/site-packages/pkg_resources/extern/__init__.py'
p321
g3
((lp322
I28
aI29
aI30
atRp323
sS'/Library/Frameworks/Python.framework/Versions/2.7/lib/python2.7/site-packages/botocore/docs/shape.py'
p324
g3
((lp325
I100
aI37
aI38
aI109
aI19
aI22
aI23
aI26
aI91
atRp326
sS'/Library/Frameworks/Python.framework/Versions/2.7/lib/python2.7/site-packages/jmespath/parser.py'
p327
g3
((lp328
I516
aI517
aI518
aI522
aI527
aI27
aI28
aI541
aI30
aI31
aI32
aI33
aI34
aI37
aI38
aI39
aI40
aI41
aI42
aI43
aI44
aI45
aI46
aI47
aI48
aI49
aI50
aI51
aI52
aI53
aI54
aI55
aI56
aI57
aI58
aI59
aI61
aI62
aI63
aI64
aI65
aI66
aI67
aI71
aI74
aI75
aI77
aI83
aI93
aI106
aI117
aI136
aI139
aI142
aI145
aI156
aI164
aI167
aI170
aI175
aI181
aI185
aI202
aI217
aI242
aI245
aI249
aI264
aI268
aI272
aI276
aI288
aI298
aI301
aI304
aI307
aI310
aI313
aI316
aI322
aI341
aI350
aI354
aI366
aI386
aI407
aI438
aI448
aI455
aI459
aI478
aI494
aI497
aI500
aI503
aI506
aI510
atRp329
sS'/Library/Frameworks/Python.framework/Versions/2.7/lib/python2.7/json/encoder.py'
p330
g3
((lp331
I2
aI3
aI5
aI6
aI9
aI10
aI14
aI15
aI16
aI17
aI18
aI19
aI20
aI21
aI22
aI23
aI24
aI26
aI27
aI30
aI31
aI33
aI42
aI68
aI70
aI98
aI99
aI100
aI101
aI102
aI103
aI153
aI154
aI155
aI156
aI157
aI158
aI159
aI161
aI163
aI165
aI186
aI194
aI207
aI208
aI209
aI210
aI212
aI222
aI223
aI226
aI227
aI230
aI236
aI237
aI259
aI260
aI266
aI267
aI268
aI269
aI270
aI275
aI276
aI277
aI278
aI279
aI280
aI281
aI282
aI283
aI284
aI285
aI288
aI289
aI292
aI293
aI294
aI296
aI297
aI298
aI299
aI300
aI301
aI302
aI306
aI307
aI308
aI309
aI312
aI314
aI316
aI318
aI320
aI322
aI325
aI326
aI328
aI329
aI332
aI333
aI334
aI335
aI336
aI337
aI338
aI339
aI341
aI342
aI345
aI346
aI347
aI349
aI350
aI351
aI352
aI353
aI354
aI355
aI359
aI360
aI363
aI364
aI365
aI366
aI383
aI384
aI386
aI387
aI388
aI389
aI390
aI391
aI393
aI395
aI397
aI398
aI399
aI402
aI403
aI404
aI405
aI408
aI409
aI410
aI411
aI412
aI413
aI414
aI415
aI417
aI418
aI420
aI422
aI424
aI426
aI428
aI430
aI431
aI432
aI433
aI434
aI435
aI448
atRp332
sS'/Library/Frameworks/Python.framework/Versions/2.7/lib/python2.7/site-packages/pyasn1/type/tagmap.py'
p333
g3
((lp334
I7
aI9
aI74
aI12
aI77
aI14
aI80
aI19
aI23
aI33
aI43
aI53
atRp335
sS'/Library/Frameworks/Python.framework/Versions/2.7/lib/python2.7/json/decoder.py'
p336
g3
((lp337
I2
aI3
aI4
aI5
aI7
aI8
aI9
aI13
aI15
aI272
aI17
aI18
aI19
aI20
aI22
aI25
aI34
aI300
aI302
aI303
aI304
aI49
aI50
aI51
aI52
aI55
aI56
aI57
aI58
aI61
aI63
aI73
aI74
aI347
aI348
aI349
aI350
aI351
aI352
aI353
aI354
aI355
aI356
aI357
aI359
aI364
aI365
aI366
aI368
aI370
aI379
aI380
aI383
aI143
aI145
aI146
aI149
aI236
atRp338
sS'/Library/Frameworks/Python.framework/Versions/2.7/lib/python2.7/site-packages/cryptography/hazmat/__init__.py'
p339
g3
((lp340
I10
aI11
atRp341
sS'/Library/Frameworks/Python.framework/Versions/2.7/lib/python2.7/urllib2.py'
p342
g3
((lp343
I1065
aI1080
aI1085
aI1090
aI1092
aI1093
aI1095
aI76
aI1103
aI1105
aI1106
aI1108
aI1115
aI92
aI93
aI94
aI95
aI96
aI97
aI98
aI1123
aI100
aI101
aI102
aI103
aI104
aI105
aI107
aI108
aI113
aI114
aI118
aI120
aI125
aI128
aI130
aI131
aI132
aI156
aI164
aI170
aI174
aI177
aI178
aI179
aI181
aI194
aI203
aI199
aI1225
aI1227
aI1230
aI207
aI208
aI1233
aI1235
aI1239
aI1243
aI1245
aI1246
aI224
aI1232
aI226
aI227
aI1252
aI1256
aI1260
aI1261
aI1263
aI1264
aI1268
aI246
aI1278
aI256
aI264
aI267
aI270
aI273
aI279
aI286
aI293
aI296
aI1321
aI1327
aI1329
aI308
aI311
aI314
aI1339
aI1340
aI318
aI322
aI326
aI1351
aI331
aI336
aI337
aI348
aI1379
aI1380
aI395
aI399
aI1433
aI411
aI1439
aI1442
aI1449
aI1452
aI1455
aI439
aI1465
aI454
aI1485
aI479
aI518
aI519
aI521
aI524
aI528
aI537
aI538
aI539
aI541
aI552
aI554
aI555
aI558
aI1117
aI561
aI564
aI566
aI1120
aI99
aI600
aI656
aI658
aI663
aI735
aI737
aI739
aI749
aI1152
aI778
aI780
aI783
aI794
aI804
aI305
aI827
aI842
aI844
aI852
aI859
aI860
aI866
aI873
aI889
aI902
aI904
aI906
aI913
aI915
aI917
aI928
aI942
aI953
aI962
aI965
aI982
aI994
aI1004
atRp344
sS'/Library/Frameworks/Python.framework/Versions/2.7/lib/python2.7/site-packages/cryptography/hazmat/bindings/openssl/_conditional.py'
p345
g3
((lp346
I5
aI11
aI13
aI14
aI15
aI16
aI17
aI18
aI21
aI22
aI23
aI24
aI25
aI26
aI27
aI28
aI29
aI30
aI31
aI32
aI33
aI34
aI35
aI36
aI37
aI38
aI39
aI40
aI41
aI42
aI43
aI44
aI45
aI46
aI47
aI48
aI49
aI52
aI53
aI54
aI55
aI56
aI57
aI58
aI59
aI60
aI61
aI62
aI63
aI64
aI65
aI66
aI67
aI68
aI69
aI70
aI71
aI72
aI73
aI74
aI75
aI76
aI77
aI78
aI79
aI80
aI81
aI82
aI83
aI84
aI85
aI86
aI87
aI88
aI89
aI90
aI91
aI92
aI93
aI94
aI95
aI96
aI97
aI98
aI99
aI100
aI101
aI102
aI103
aI104
aI105
aI106
aI107
aI108
aI109
aI110
aI111
aI112
aI113
aI114
aI115
aI116
aI117
aI118
aI119
aI120
aI121
aI122
aI123
aI124
aI125
aI126
aI127
aI128
aI129
aI130
aI131
aI132
aI133
aI134
aI135
aI136
aI137
aI138
aI139
aI143
aI144
aI145
aI146
aI147
aI148
aI149
aI153
aI156
aI159
aI162
aI163
aI164
aI165
aI166
aI167
aI168
aI169
aI170
aI171
aI172
aI173
aI176
aI179
aI180
aI183
aI186
aI187
aI188
aI191
aI192
aI193
aI196
aI199
aI200
aI201
aI202
aI206
aI207
aI208
aI209
aI213
aI214
aI215
aI219
aI223
aI227
aI231
aI235
aI239
aI240
aI241
aI242
aI246
aI247
aI248
aI252
aI256
aI257
aI258
aI259
aI260
aI261
aI262
aI263
aI264
aI267
aI268
aI269
aI270
aI271
aI272
aI273
aI274
aI277
aI280
aI283
aI284
aI287
aI288
aI289
aI290
aI293
aI294
aI297
aI298
aI299
aI300
aI301
aI304
aI307
aI308
aI311
atRp347
sS'/Library/Frameworks/Python.framework/Versions/2.7/lib/python2.7/site-packages/pyasn1/codec/der/decoder.py'
p348
g3
((lp349
I7
aI8
aI10
aI13
aI14
aI17
aI18
aI21
aI23
aI24
aI25
aI26
aI27
aI30
aI33
aI34
aI63
atRp350
sS'/Library/Frameworks/Python.framework/Versions/2.7/lib/python2.7/threading.py'
p351
g3
((lp352
I261
aI262
aI264
aI266
aI267
aI271
aI272
aI273
aI274
aI275
aI276
aI277
aI278
aI279
aI280
aI281
aI282
aI283
aI389
aI134
aI303
aI307
aI60
aI61
aI62
aI65
aI108
aI123
aI383
aI385
aI386
aI387
aI133
aI390
aI135
aI136
aI168
aI169
aI170
aI172
aI173
aI174
aI175
aI176
aI177
aI179
aI183
aI203
aI205
aI206
aI207
aI208
aI210
aI213
aI216
aI253
atRp353
sS'/Library/Frameworks/Python.framework/Versions/2.7/lib/python2.7/collections.py'
p354
g3
((lp355
I349
aI56
aI59
aI60
aI61
aI63
aI64
aI65
aI66
aI67
aI68
aI69
aI96
aI75
aI76
aI333
aI78
aI79
aI85
aI86
aI87
aI88
aI346
aI347
aI93
aI94
aI95
aI352
aI97
aI355
aI358
aI359
aI360
aI363
aI365
aI368
aI369
aI370
aI371
aI372
aI373
aI374
aI375
aI376
aI378
aI123
aI127
aI384
aI385
aI386
aI389
aI395
aI396
aI400
aI155
aI156
aI157
aI158
aI159
aI160
aI331
aI196
aI197
aI198
aI199
aI200
aI332
aI202
aI119
aI206
aI77
aI334
aI335
aI383
atRp356
sS'/Library/Frameworks/Python.framework/Versions/2.7/lib/python2.7/site-packages/pyasn1/compat/integer.py'
p357
g3
((lp358
I69
aI71
aI72
aI73
aI74
aI75
aI12
aI77
aI79
aI21
aI7
aI76
aI8
aI10
aI9
aI13
atRp359
sS'/Library/Frameworks/Python.framework/Versions/2.7/lib/python2.7/site-packages/cryptography/exceptions.py'
p360
g3
((lp361
I5
aI7
aI10
aI11
aI12
aI13
aI14
aI15
aI16
aI17
aI18
aI19
aI20
aI21
aI24
aI25
aI30
aI31
aI34
aI35
aI38
aI39
aI42
aI43
aI46
aI47
aI50
aI51
aI56
aI57
atRp362
sS'/Library/Frameworks/Python.framework/Versions/2.7/lib/python2.7/site-packages/OpenSSL/rand.py'
p363
g3
((lp364
I3
aI5
aI6
aI8
aI10
aI12
aI147
aI159
aI32
aI34
aI36
aI38
aI41
aI115
aI181
aI67
aI205
aI206
aI211
aI91
aI195
aI106
aI19
atRp365
sS'/Library/Frameworks/Python.framework/Versions/2.7/lib/python2.7/site-packages/botocore/docs/__init__.py'
p366
g3
((lp367
I18
aI13
aI15
atRp368
sS'/Library/Frameworks/Python.framework/Versions/2.7/lib/python2.7/email/message.py'
p369
g3
((lp370
I384
aI386
aI283
aI294
aI302
aI317
aI352
aI360
aI361
aI362
aI363
aI108
aI109
aI110
aI111
aI113
aI114
aI116
aI379
aI380
aI381
aI382
aI383
atRp371
sS'/Library/Frameworks/Python.framework/Versions/2.7/lib/python2.7/site-packages/botocore/docs/bcdoc/restdoc.py'
p372
g3
((lp373
I130
aI135
aI13
aI15
aI16
aI17
aI19
aI22
aI151
aI24
aI155
aI159
aI35
aI39
aI45
aI51
aI185
aI58
aI189
aI64
aI193
aI147
aI70
aI80
aI83
aI214
aI87
aI217
aI143
aI99
aI106
aI107
aI211
atRp374
sS'/Library/Frameworks/Python.framework/Versions/2.7/lib/python2.7/site-packages/botocore/vendored/requests/structures.py'
p375
g3
((lp376
I9
aI11
aI14
aI41
aI42
aI43
aI44
aI45
aI46
aI48
aI51
aI53
aI54
aI56
aI59
aI60
aI62
aI63
aI65
aI73
aI82
aI85
aI88
aI89
aI91
aI92
aI93
aI95
aI98
aI103
atRp377
sS'/Library/Frameworks/Python.framework/Versions/2.7/lib/python2.7/site-packages/OpenSSL/crypto.py'
p378
g3
((lp379
I1
aI3
aI2052
aI5
aI6
aI8
aI13
aI15
aI1042
aI1027
aI4
aI26
aI27
aI2077
aI2078
aI32
aI33
aI36
aI39
aI42
aI43
aI46
aI58
aI1085
aI67
aI1102
aI2137
aI2140
aI2141
aI2149
aI102
aI1129
aI2157
aI1138
aI2165
aI2173
aI132
aI2183
aI2186
aI2189
aI2191
aI2197
aI1177
aI2206
aI2219
aI172
aI1197
aI175
aI176
aI177
aI179
aI2228
aI30
aI184
aI1211
aI2241
aI1057
aI1224
aI201
aI2252
aI1236
aI1239
aI224
aI2273
aI1254
aI1257
aI2290
aI1272
aI2299
aI1287
aI1302
aI280
aI1313
aI1319
aI304
aI1333
aI312
aI2363
aI2366
aI319
aI1344
aI322
aI907
aI2372
aI330
aI331
aI333
aI1358
aI1369
aI346
aI399
aI2399
aI1380
aI368
aI2417
aI1396
aI2429
aI382
aI2443
aI1420
aI1423
aI2454
aI2457
aI1432
aI1433
aI2458
aI1435
aI1436
aI1434
aI1438
aI1439
aI416
aI1441
aI1442
aI1443
aI2468
aI1446
aI1607
aI430
aI1437
aI1458
aI1460
aI1464
aI2490
aI445
aI1440
aI2499
aI1481
aI463
aI419
aI1497
aI2522
aI486
aI488
aI1522
aI1525
aI2555
aI1532
aI1534
aI1539
aI1555
aI1557
aI534
aI2479
aI2590
aI1567
aI1577
aI93
aI1585
aI2617
aI574
aI575
aI580
aI582
aI583
aI585
aI586
aI588
aI589
aI591
aI1618
aI2644
aI603
aI1637
aI615
aI2675
aI630
aI1668
aI656
aI659
aI2708
aI662
aI664
aI1694
aI2736
aI1719
aI2765
aI725
aI731
aI732
aI733
aI734
aI737
aI2793
aI1772
aI1775
aI1781
aI1782
aI1783
aI1784
aI1785
aI1786
aI1787
aI1791
aI1795
aI772
aI785
aI793
aI1818
aI808
aI1836
aI1845
aI824
aI827
aI830
aI832
aI2886
aI2890
aI2895
aI2360
aI850
aI1881
aI864
aI875
aI1908
aI885
aI1920
aI2368
aI1931
aI1942
aI1945
aI1947
aI1951
aI930
aI838
aI498
aI947
aI1972
aI1989
aI971
aI2004
aI2015
aI992
aI2018
aI995
aI998
aI999
aI1004
aI2035
aI1018
atRp380
sS'/Library/Frameworks/Python.framework/Versions/2.7/lib/python2.7/site-packages/botocore/vendored/requests/utils.py'
p381
g3
((lp382
I522
aI523
aI12
aI13
aI14
aI527
aI16
aI17
aI18
aI19
aI20
aI21
aI22
aI24
aI537
aI26
aI27
aI540
aI542
aI31
aI32
aI545
aI34
aI36
aI38
aI41
aI559
aI560
aI561
aI50
aI51
aI52
aI566
aI567
aI568
aI571
aI572
aI573
aI574
aI575
aI576
aI580
aI70
aI173
aI15
aI615
aI616
aI617
aI620
aI530
aI116
aI532
aI124
aI534
aI649
aI147
aI25
aI666
aI668
aI669
aI670
aI671
aI160
aI673
aI163
aI676
aI166
aI167
aI169
aI682
aI684
aI685
aI692
aI30
aI695
aI544
aI204
aI238
aI262
aI276
aI288
aI10
aI308
aI314
aI316
aI317
aI319
aI321
aI324
aI328
aI346
aI354
aI390
aI391
aI392
aI395
aI399
aI400
aI414
aI417
aI423
aI424
aI425
aI429
aI437
aI450
aI459
aI663
aI467
aI487
aI491
aI495
aI496
aI498
atRp383
sS'/Library/Frameworks/Python.framework/Versions/2.7/lib/python2.7/site-packages/dateutil/parser.py'
p384
g3
((lp385
I29
aI30
aI32
aI33
aI34
aI35
aI36
aI37
aI38
aI40
aI42
aI43
aI45
aI48
aI50
aI52
aI53
aI54
aI56
aI57
aI59
aI60
aI61
aI62
aI64
aI78
aI81
aI82
aI83
aI85
aI90
aI91
aI93
aI94
aI97
aI98
aI99
aI100
aI103
aI104
aI105
aI106
aI107
aI108
aI112
aI113
aI116
aI117
aI119
aI123
aI124
aI125
aI128
aI129
aI130
aI131
aI132
aI134
aI135
aI136
aI148
aI151
aI152
aI153
aI157
aI158
aI160
aI161
aI168
aI171
aI173
aI174
aI176
aI177
aI178
aI179
aI181
aI183
aI184
aI186
aI188
aI190
aI193
aI195
aI198
aI200
aI203
aI206
aI208
aI209
aI210
aI212
aI220
aI221
aI222
aI224
aI228
aI244
aI247
aI248
aI249
aI251
aI252
aI253
aI254
aI255
aI256
aI257
aI258
aI259
aI260
aI261
aI262
aI263
aI264
aI265
aI266
aI267
aI268
aI269
aI270
aI271
aI272
aI273
aI274
aI275
aI276
aI277
aI279
aI280
aI281
aI282
aI283
aI284
aI285
aI286
aI288
aI289
aI291
aI292
aI294
aI295
aI296
aI297
aI298
aI299
aI301
aI302
aI304
aI305
aI307
aI308
aI313
aI315
aI316
aI321
aI323
aI324
aI325
aI326
aI327
aI329
aI330
aI331
aI332
aI333
aI335
aI338
aI341
aI342
aI345
aI347
aI348
aI355
aI357
aI359
aI360
aI362
aI363
aI364
aI367
aI370
aI371
aI372
aI373
aI374
aI376
aI383
aI387
aI397
aI398
aI399
aI400
aI404
aI406
aI407
aI408
aI410
aI412
aI424
aI439
aI441
aI443
aI453
aI463
aI467
aI470
aI478
aI481
aI482
aI483
aI485
aI545
aI546
aI547
aI548
aI552
aI554
aI557
aI560
aI561
aI562
aI563
aI564
aI565
aI567
aI577
aI579
aI582
aI583
aI584
aI601
aI603
aI604
aI608
aI611
aI613
aI614
aI615
aI616
aI618
aI619
aI659
aI662
aI664
aI665
aI667
aI668
aI670
aI671
aI675
aI676
aI678
aI680
aI683
aI685
aI686
aI687
aI690
aI691
aI692
aI693
aI694
aI696
aI698
aI699
aI701
aI702
aI711
aI727
aI741
aI742
aI789
aI804
aI806
aI807
aI808
aI809
aI811
aI814
aI816
aI817
aI818
aI820
aI821
aI822
aI823
aI825
aI826
aI828
aI840
aI842
aI844
aI845
aI847
aI852
aI854
aI885
aI888
aI889
aI895
aI896
aI932
aI933
aI971
aI972
aI973
aI974
aI975
aI976
aI977
aI984
aI995
aI1028
aI1031
aI1036
aI1037
aI1038
aI1041
aI1042
aI1043
aI1044
aI1046
aI1047
aI1049
aI1050
aI1055
aI1058
aI1061
aI1063
aI1066
aI1161
aI1164
aI1167
aI1169
aI1171
aI1172
aI1174
aI1175
aI1176
aI1178
aI1181
aI1186
aI1340
aI1343
aI1347
aI1349
aI1352
aI1353
atRp386
sS'/Library/Frameworks/Python.framework/Versions/2.7/lib/python2.7/site-packages/boto3/utils.py'
p387
g3
((lp388
I13
aI14
aI17
aI18
aI19
aI20
aI24
aI42
aI43
aI46
aI52
aI53
aI56
aI57
aI59
aI60
aI61
aI62
aI63
aI65
aI68
aI69
aI74
aI77
aI85
aI86
aI91
atRp389
sS'/Library/Frameworks/Python.framework/Versions/2.7/lib/python2.7/encodings/idna.py'
p390
g3
((lp391
I3
aI4
aI7
aI10
aI11
aI14
aI271
aI272
aI146
aI275
aI149
aI279
aI280
aI281
aI282
aI283
aI284
aI157
aI158
aI287
aI162
aI163
aI164
aI166
aI168
aI156
aI285
aI286
aI62
aI63
aI65
aI197
aI198
aI71
aI72
aI231
aI232
aI105
aI274
aI147
aI153
atRp392
sS'/Library/Frameworks/Python.framework/Versions/2.7/lib/python2.7/site-packages/pyasn1/type/char.py'
p393
g3
((lp394
I256
aI259
aI260
aI262
aI7
aI8
aI9
aI266
aI12
aI13
aI270
aI272
aI17
aI275
aI20
aI279
aI280
aI282
aI285
aI286
aI48
aI290
aI293
aI294
aI296
aI299
aI300
aI50
aI303
aI304
aI306
aI51
aI309
aI310
aI265
aI313
aI314
aI59
aI316
aI62
aI319
aI320
aI323
aI324
aI326
aI269
aI14
aI87
aI90
aI16
aI276
aI131
aI134
aI137
aI138
aI170
aI171
aI289
aI208
aI211
aI212
aI215
aI216
aI218
aI221
aI222
aI225
aI226
aI228
aI231
aI232
aI235
aI236
aI238
aI241
aI242
aI245
aI246
aI249
aI250
aI252
aI255
atRp395
sS'/Library/Frameworks/Python.framework/Versions/2.7/lib/python2.7/site-packages/s3transfer/upload.py'
p396
g3
((lp397
I524
aI13
aI15
aI17
aI18
aI19
aI20
aI21
aI22
aI23
aI24
aI25
aI28
aI29
aI45
aI50
aI55
aI61
aI73
aI74
aI588
aI78
aI88
aI91
aI94
aI97
aI100
aI104
aI118
aI119
aI124
aI136
aI151
aI665
aI670
aI159
aI673
aI680
aI681
aI682
aI174
aI695
aI696
aI697
aI189
aI205
aI212
aI221
aI225
aI226
aI227
aI231
aI234
aI239
aI242
aI261
aI286
aI291
aI296
aI301
aI306
aI307
aI308
aI312
aI318
aI330
aI345
aI353
aI354
aI355
aI360
aI364
aI367
aI372
aI389
aI402
aI421
aI562
aI463
aI485
aI486
aI489
aI490
aI491
aI492
aI496
aI499
atRp398
sS'/Library/Frameworks/Python.framework/Versions/2.7/lib/python2.7/site-packages/botocore/response.py'
p399
g3
((lp400
I69
aI15
aI16
aI17
aI19
aI20
aI21
aI22
aI23
aI26
aI29
aI98
aI40
aI41
aI46
aI93
aI83
atRp401
sS'/Library/Frameworks/Python.framework/Versions/2.7/lib/python2.7/site-packages/s3transfer/download.py'
p402
g3
((lp403
I13
aI14
aI15
aI16
aI17
aI18
aI21
aI22
aI23
aI26
aI27
aI28
aI29
aI30
aI31
aI32
aI33
aI34
aI35
aI36
aI37
aI38
aI39
aI42
aI45
aI558
aI49
aI562
aI568
aI569
aI61
aI574
aI575
aI67
aI586
aI587
aI589
aI81
aI89
aI602
aI609
aI610
aI99
aI615
aI619
aI620
aI624
aI113
aI629
aI630
aI631
aI632
aI641
aI645
aI646
aI139
aI656
aI659
aI153
aI672
aI162
aI675
aI170
aI683
aI684
aI174
aI689
aI181
aI373
aI195
aI202
aI203
aI207
aI211
aI218
aI220
aI228
aI232
aI235
aI238
aI242
aI253
aI263
aI265
aI270
aI275
aI280
aI288
aI289
aI291
aI320
aI62
aI415
aI163
aI479
aI485
aI496
aI499
atRp404
sS'/Library/Frameworks/Python.framework/Versions/2.7/lib/python2.7/site-packages/boto3/docs/subresource.py'
p405
g3
((lp406
I51
aI13
aI14
aI16
aI17
aI18
aI19
aI20
aI23
aI24
atRp407
sS'/Library/Frameworks/Python.framework/Versions/2.7/lib/python2.7/site-packages/pyasn1/type/constraint.py'
p408
g3
((lp409
I9
aI10
aI12
aI13
aI14
aI17
aI23
aI25
aI26
aI27
aI28
aI30
aI31
aI32
aI38
aI44
aI47
aI50
aI53
aI56
aI59
aI62
aI63
aI69
aI70
aI71
aI72
aI74
aI75
aI77
aI81
aI82
aI84
aI88
aI93
aI94
aI96
aI98
aI102
aI103
aI105
aI110
aI111
aI113
aI117
aI118
aI122
aI123
aI130
aI133
aI134
aI136
aI142
aI143
aI148
aI155
aI156
aI158
aI169
aI182
aI183
aI185
aI193
aI199
aI200
aI202
aI204
aI206
aI208
aI212
aI213
aI214
aI215
aI216
aI219
aI220
aI222
aI223
aI224
aI227
aI228
aI230
atRp410
sS'/Library/Frameworks/Python.framework/Versions/2.7/lib/python2.7/site-packages/packaging/version.py'
p411
g3
((lp412
I4
aI6
aI7
aI8
aI266
aI270
aI18
aI19
aI20
aI24
aI283
aI289
aI36
aI293
aI39
aI42
aI44
aI47
aI50
aI53
aI56
aI59
aI10
aI62
aI65
aI72
aI329
aI74
aI332
aI78
aI81
aI84
aI14
aI343
aI88
aI92
aI96
aI100
aI105
aI106
aI109
aI110
aI114
aI131
aI188
aI191
aI193
aI194
aI195
aI198
aI233
aI236
aI298
atRp413
sS'/Library/Frameworks/Python.framework/Versions/2.7/lib/python2.7/site-packages/boto3/resources/collection.py'
p414
g3
((lp415
I260
aI14
aI15
aI17
aI18
aI20
aI21
aI22
aI23
aI26
aI29
aI428
aI45
aI46
aI304
aI306
aI54
aI183
aI440
aI319
aI64
aI329
aI204
aI340
aI342
aI344
aI356
aI346
aI348
aI93
aI350
aI352
aI354
aI228
aI358
aI361
aI367
aI368
aI302
aI116
aI246
aI505
atRp416
sS'/Library/Frameworks/Python.framework/Versions/2.7/lib/python2.7/genericpath.py'
p417
g3
((lp418
I25
aI26
aI27
aI28
aI36
aI37
aI38
aI39
aI40
aI48
aI49
aI50
aI51
aI52
atRp419
sS'/Library/Frameworks/Python.framework/Versions/2.7/lib/python2.7/site-packages/botocore/vendored/requests/status_codes.py'
p420
g3
((lp421
I3
aI5
aI8
aI9
aI10
aI11
aI12
aI13
aI14
aI15
aI16
aI17
aI18
aI19
aI20
aI21
aI22
aI25
aI26
aI27
aI28
aI29
aI30
aI31
aI32
aI34
aI37
aI38
aI39
aI40
aI41
aI42
aI43
aI44
aI45
aI46
aI47
aI48
aI49
aI50
aI51
aI52
aI53
aI54
aI55
aI56
aI57
aI58
aI59
aI60
aI61
aI62
aI63
aI64
aI65
aI66
aI67
aI68
aI71
aI72
aI73
aI74
aI75
aI76
aI77
aI78
aI79
aI80
aI83
aI85
aI86
aI87
aI88
aI89
atRp422
sS'/Library/Frameworks/Python.framework/Versions/2.7/lib/python2.7/stat.py'
p423
g3
((lp424
I50
aI25
aI41
atRp425
sS'/Library/Frameworks/Python.framework/Versions/2.7/lib/python2.7/site-packages/boto3/docs/base.py'
p426
g3
((lp427
I13
aI16
aI17
aI29
atRp428
sS'/Library/Frameworks/Python.framework/Versions/2.7/lib/python2.7/getpass.py'
p429
g3
((lp430
I12
aI141
aI18
aI20
aI23
aI89
aI26
aI161
aI162
aI165
aI112
aI179
aI121
atRp431
sS'/Library/Frameworks/Python.framework/Versions/2.7/lib/python2.7/site-packages/six.py'
p432
g3
((lp433
I1
aI23
aI25
aI26
aI27
aI28
aI29
aI31
aI32
aI36
aI37
aI38
aI40
aI49
aI50
aI51
aI52
aI53
aI55
aI60
aI62
aI63
aI64
aI65
aI71
aI72
aI75
aI77
aI80
aI82
aI83
aI86
aI88
aI89
aI91
aI92
aI93
aI94
aI97
aI100
aI103
aI105
aI106
aI107
aI112
aI114
aI115
aI117
aI124
aI126
aI127
aI128
aI130
aI136
aI139
aI141
aI142
aI143
aI154
aI155
aI156
aI157
aI159
aI164
aI171
aI173
aI174
aI175
aI177
aI178
aI179
aI181
aI182
aI184
aI185
aI186
aI187
aI189
aI190
aI191
aI195
aI196
aI198
aI199
aI200
aI201
aI202
aI205
aI206
aI207
aI209
aI218
aI224
aI226
aI229
aI231
aI232
aI236
aI237
aI238
aI239
aI240
aI241
aI242
aI243
aI244
aI245
aI246
aI247
aI248
aI249
aI250
aI251
aI252
aI253
aI254
aI255
aI256
aI257
aI258
aI259
aI260
aI261
aI262
aI263
aI264
aI265
aI266
aI267
aI268
aI269
aI270
aI271
aI272
aI273
aI274
aI275
aI276
aI277
aI278
aI279
aI280
aI281
aI282
aI283
aI284
aI285
aI286
aI287
aI288
aI289
aI290
aI291
aI292
aI293
aI294
aI295
aI296
aI297
aI298
aI299
aI300
aI303
aI308
aI309
aI310
aI311
aI312
aI314
aI316
aI317
aI320
aI322
aI326
aI327
aI328
aI329
aI330
aI331
aI332
aI333
aI334
aI335
aI336
aI337
aI338
aI339
aI340
aI341
aI342
aI343
aI344
aI345
aI346
aI347
aI348
aI350
aI351
aI352
aI354
aI356
aI357
aI360
aI362
aI366
aI367
aI368
aI370
aI371
aI372
aI374
aI376
aI377
aI380
aI382
aI386
aI387
aI388
aI389
aI390
aI391
aI392
aI393
aI394
aI395
aI396
aI397
aI398
aI399
aI400
aI401
aI402
aI403
aI404
aI405
aI406
aI407
aI408
aI409
aI410
aI411
aI412
aI413
aI414
aI415
aI416
aI417
aI418
aI420
aI421
aI422
aI424
aI426
aI427
aI430
aI432
aI436
aI437
aI438
aI439
aI441
aI442
aI443
aI445
aI447
aI448
aI451
aI453
aI457
aI459
aI460
aI461
aI463
aI465
aI466
aI469
aI471
aI472
aI473
aI474
aI475
aI476
aI477
aI479
aI482
aI483
aI486
aI491
aI502
aI511
aI512
aI514
aI515
aI516
aI517
aI520
aI521
aI525
aI528
aI529
aI535
aI546
aI549
aI552
aI555
aI557
aI560
aI561
aI562
aI565
aI566
aI567
aI568
aI569
aI570
aI573
aI592
aI595
aI598
aI601
aI604
aI606
aI608
aI610
aI611
aI612
aI613
aI614
aI615
aI618
aI642
aI646
aI648
aI649
aI651
aI654
aI656
aI657
aI658
aI659
aI660
aI661
aI662
aI663
aI666
aI670
aI674
aI678
aI689
aI691
aI692
aI693
aI694
aI695
aI696
aI699
aI701
aI703
aI706
aI712
aI717
aI721
aI722
aI776
aI777
aI779
aI786
aI788
aI789
aI790
aI800
aI812
aI814
aI815
aI816
aI817
aI822
aI823
aI824
aI825
aI828
aI849
aI850
aI851
aI856
aI857
aI862
aI863
aI866
aI868
atRp434
sS'/Library/Frameworks/Python.framework/Versions/2.7/lib/python2.7/site-packages/botocore/vendored/__init__.py'
p435
g3
((lp436
I1
atRp437
sS'/Library/Frameworks/Python.framework/Versions/2.7/lib/python2.7/site-packages/pyasn1/codec/ber/eoo.py'
p438
g3
((lp439
I7
aI10
aI11
aI12
aI13
aI17
atRp440
sS'/Library/Frameworks/Python.framework/Versions/2.7/lib/python2.7/site-packages/botocore/vendored/requests/compat.py'
p441
g3
((lp442
I5
aI7
aI9
aI16
aI19
aI22
aI24
aI25
aI35
aI36
aI37
aI38
aI39
aI40
aI41
aI42
aI44
aI45
aI46
aI47
aI48
atRp443
sS'/Library/Frameworks/Python.framework/Versions/2.7/lib/python2.7/site-packages/pyasn1/codec/__init__.py'
p444
g3
((lp445
I1
atRp446
sS'/Library/Frameworks/Python.framework/Versions/2.7/lib/python2.7/site-packages/pyasn1/type/error.py'
p447
g3
((lp448
I7
aI10
aI11
atRp449
sS'/Library/Frameworks/Python.framework/Versions/2.7/lib/python2.7/warnings.py'
p450
g3
((lp451
I384
aI20
aI367
aI368
aI79
aI80
aI81
aI82
aI83
aI85
aI86
aI87
aI89
aI90
aI91
aI94
aI351
aI352
aI353
aI106
aI107
aI108
aI365
aI110
aI111
aI112
aI369
aI370
aI371
aI378
aI381
aI383
atRp452
sS'/Library/Frameworks/Python.framework/Versions/2.7/lib/python2.7/site-packages/boto3/exceptions.py'
p453
g3
((lp454
I15
aI19
aI20
aI23
aI24
aI29
aI30
aI38
aI39
aI40
aI52
aI53
aI54
aI55
aI70
aI71
aI76
aI77
aI80
aI81
aI84
aI85
aI86
aI95
aI98
aI99
aI100
aI108
aI109
atRp455
sS'/Library/Frameworks/Python.framework/Versions/2.7/lib/python2.7/site-packages/botocore/vendored/six.py'
p456
g3
((lp457
I1
aI23
aI25
aI26
aI27
aI28
aI29
aI31
aI32
aI36
aI37
aI38
aI40
aI49
aI50
aI51
aI52
aI53
aI55
aI60
aI62
aI63
aI64
aI65
aI71
aI72
aI75
aI77
aI80
aI82
aI83
aI86
aI88
aI89
aI91
aI92
aI93
aI94
aI97
aI100
aI103
aI105
aI106
aI107
aI112
aI114
aI115
aI117
aI124
aI126
aI127
aI128
aI130
aI136
aI139
aI141
aI142
aI143
aI154
aI155
aI156
aI157
aI159
aI164
aI171
aI173
aI174
aI175
aI177
aI178
aI179
aI181
aI182
aI184
aI185
aI187
aI189
aI195
aI209
aI218
aI224
aI226
aI229
aI231
aI232
aI236
aI237
aI238
aI239
aI240
aI241
aI242
aI243
aI244
aI245
aI246
aI247
aI248
aI249
aI250
aI251
aI252
aI253
aI254
aI255
aI256
aI257
aI258
aI259
aI260
aI261
aI262
aI263
aI264
aI265
aI266
aI267
aI268
aI269
aI270
aI271
aI272
aI273
aI274
aI275
aI276
aI277
aI278
aI279
aI280
aI281
aI282
aI283
aI284
aI285
aI286
aI287
aI288
aI289
aI290
aI291
aI292
aI293
aI294
aI295
aI296
aI297
aI298
aI299
aI300
aI303
aI308
aI309
aI310
aI311
aI312
aI314
aI316
aI317
aI320
aI322
aI326
aI327
aI328
aI329
aI330
aI331
aI332
aI333
aI334
aI335
aI336
aI337
aI338
aI339
aI340
aI341
aI342
aI343
aI344
aI345
aI346
aI347
aI348
aI350
aI351
aI352
aI354
aI356
aI357
aI360
aI362
aI366
aI367
aI368
aI370
aI371
aI372
aI374
aI376
aI377
aI380
aI382
aI386
aI387
aI388
aI389
aI390
aI391
aI392
aI393
aI394
aI395
aI396
aI397
aI398
aI399
aI400
aI401
aI402
aI403
aI404
aI405
aI406
aI407
aI408
aI409
aI410
aI411
aI412
aI413
aI414
aI415
aI416
aI417
aI418
aI420
aI421
aI422
aI424
aI426
aI427
aI430
aI432
aI436
aI437
aI438
aI439
aI441
aI442
aI443
aI445
aI447
aI448
aI451
aI453
aI457
aI459
aI460
aI461
aI463
aI465
aI466
aI469
aI471
aI472
aI473
aI474
aI475
aI476
aI477
aI479
aI482
aI483
aI486
aI491
aI502
aI511
aI512
aI514
aI515
aI516
aI517
aI520
aI521
aI525
aI528
aI529
aI535
aI546
aI549
aI552
aI555
aI557
aI560
aI561
aI562
aI565
aI566
aI567
aI568
aI569
aI570
aI573
aI592
aI595
aI598
aI601
aI604
aI606
aI608
aI610
aI611
aI612
aI613
aI614
aI615
aI618
aI642
aI646
aI648
aI649
aI651
aI654
aI656
aI657
aI658
aI659
aI660
aI661
aI662
aI663
aI666
aI670
aI674
aI678
aI689
aI691
aI692
aI693
aI694
aI695
aI696
aI699
aI701
aI703
aI706
aI712
aI717
aI721
aI722
aI776
aI777
aI779
aI786
aI788
aI789
aI790
aI800
aI812
aI828
aI849
aI850
aI851
aI856
aI857
aI862
aI863
aI866
aI868
atRp458
sS'/Library/Frameworks/Python.framework/Versions/2.7/lib/python2.7/site-packages/botocore/vendored/requests/packages/urllib3/__init__.py'
p459
g3
((lp460
I3
aI5
aI6
aI7
aI10
aI16
aI17
aI18
aI19
aI20
aI21
aI22
aI23
aI27
aI28
aI29
aI35
aI37
aI55
aI58
aI60
aI62
aI63
aI65
atRp461
sS'/Library/Frameworks/Python.framework/Versions/2.7/lib/python2.7/string.py'
p462
g3
((lp463
I259
aI294
atRp464
sS'/Library/Frameworks/Python.framework/Versions/2.7/lib/python2.7/site-packages/botocore/__init__.py'
p465
g3
((lp466
I15
aI16
aI17
aI19
aI22
aI23
aI27
aI28
aI31
aI32
aI33
aI36
aI39
aI40
aI41
aI42
aI43
aI44
aI45
aI46
aI47
aI48
aI49
aI55
aI56
aI57
aI59
aI61
aI65
aI66
aI69
aI73
aI76
aI77
aI84
aI88
aI89
aI90
aI95
aI96
aI97
aI100
aI101
aI103
aI104
atRp467
sS'/Library/Frameworks/Python.framework/Versions/2.7/lib/python2.7/site-packages/dateutil/tz/_common.py'
p468
g3
((lp469
I1
aI3
aI5
aI11
aI18
atRp470
sS'/Library/Frameworks/Python.framework/Versions/2.7/lib/python2.7/site-packages/cryptography/hazmat/primitives/asymmetric/dsa.py'
p471
g3
((lp472
I5
aI7
aI9
aI11
aI14
aI15
aI16
aI23
aI24
aI25
aI32
aI33
aI34
aI40
aI46
aI52
aI58
aI65
aI66
aI67
aI73
aI80
aI81
aI82
aI88
aI94
aI100
aI106
aI112
aI119
aI122
aI126
aI130
aI140
aI150
aI151
aI165
aI166
aI167
aI169
aI172
aI178
aI181
aI189
aI190
aI202
aI203
aI205
aI208
aI217
aI220
aI227
aI228
aI239
aI240
aI242
aI245
aI253
atRp473
sS'/Library/Frameworks/Python.framework/Versions/2.7/lib/python2.7/site-packages/botocore/docs/client.py'
p474
g3
((lp475
I64
aI68
aI13
aI77
aI15
aI16
aI17
aI18
aI83
aI22
aI23
aI90
aI93
aI30
aI96
aI41
aI44
aI19
atRp476
sS'/Library/Frameworks/Python.framework/Versions/2.7/lib/python2.7/site-packages/boto3/resources/action.py'
p477
g3
((lp478
I14
aI16
aI18
aI19
aI20
aI22
aI23
aI26
aI29
aI162
aI45
aI46
aI175
aI176
aI180
aI62
aI207
aI208
aI209
aI90
aI233
aI107
aI108
atRp479
sS'/Library/Frameworks/Python.framework/Versions/2.7/lib/python2.7/site-packages/s3transfer/subscribers.py'
p480
g3
((lp481
I64
aI13
aI15
aI16
aI82
aI19
aI24
aI26
aI27
aI28
aI31
aI35
aI49
atRp482
sS'/Library/Frameworks/Python.framework/Versions/2.7/lib/python2.7/rfc822.py'
p483
g3
((lp484
I513
aI531
aI540
aI552
aI71
aI74
aI76
aI77
aI78
aI80
aI82
aI85
aI86
aI88
aI90
aI97
aI610
aI99
aI100
aI102
aI108
aI110
aI787
aI116
aI122
aI642
aI666
aI684
aI202
aI209
aI210
aI211
aI725
aI214
aI729
aI733
aI222
aI224
aI231
aI233
aI752
aI242
aI243
aI244
aI245
aI246
aI247
aI249
aI250
aI251
aI253
aI255
aI721
aI775
aI776
aI777
aI784
aI275
aI790
aI799
aI290
aI806
aI297
aI298
aI300
aI814
aI307
aI308
aI309
aI310
aI825
aI821
aI321
aI834
aI835
aI836
aI837
aI838
aI846
aI847
aI848
aI849
aI850
aI851
aI855
aI360
aI372
aI387
aI98
aI391
aI395
aI323
aI408
aI325
aI940
aI429
aI948
aI440
aI444
aI957
aI448
aI451
aI455
aI459
aI466
aI982
aI477
aI487
aI492
aI338
aI501
aI511
atRp485
sS'/Library/Frameworks/Python.framework/Versions/2.7/lib/python2.7/site-packages/boto3/docs/docstring.py'
p486
g3
((lp487
I13
aI15
aI16
aI17
aI18
aI19
aI20
aI21
aI22
aI23
aI24
aI27
aI28
aI32
aI33
aI37
aI38
aI42
aI43
aI47
aI48
aI52
aI53
aI57
aI58
aI62
aI63
aI67
aI68
aI72
aI73
atRp488
sS'/Library/Frameworks/Python.framework/Versions/2.7/lib/python2.7/sre_compile.py'
p489
g3
((lp490
I66
aI67
aI68
aI69
aI70
aI71
aI72
aI73
aI74
aI75
aI77
aI78
aI79
aI80
aI81
aI82
aI83
aI84
aI85
aI87
aI88
aI89
aI90
aI91
aI93
aI94
aI96
aI97
aI98
aI99
aI100
aI101
aI102
aI104
aI105
aI106
aI107
aI108
aI109
aI110
aI111
aI113
aI114
aI115
aI124
aI125
aI126
aI128
aI129
aI130
aI131
aI132
aI133
aI134
aI136
aI137
aI138
aI139
aI140
aI141
aI142
aI143
aI146
aI147
aI148
aI149
aI151
aI152
aI153
aI154
aI155
aI157
aI158
aI159
aI160
aI161
aI163
aI164
aI166
aI167
aI168
aI169
aI170
aI176
aI177
aI178
aI179
aI180
aI182
aI183
aI184
aI185
aI186
aI187
aI188
aI189
aI190
aI192
aI193
aI194
aI195
aI196
aI197
aI198
aI199
aI206
aI207
aI208
aI210
aI211
aI230
aI231
aI232
aI233
aI234
aI235
aI236
aI237
aI238
aI239
aI240
aI241
aI242
aI243
aI244
aI245
aI246
aI248
aI249
aI251
aI254
aI258
aI259
aI260
aI261
aI262
aI263
aI264
aI265
aI266
aI267
aI268
aI272
aI273
aI274
aI275
aI276
aI277
aI284
aI285
aI286
aI287
aI289
aI290
aI291
aI293
aI294
aI310
aI313
aI314
aI315
aI316
aI317
aI318
aI319
aI320
aI321
aI322
aI323
aI324
aI325
aI326
aI327
aI329
aI330
aI331
aI333
aI334
aI336
aI337
aI339
aI342
aI343
aI344
aI345
aI346
aI372
aI373
aI374
aI375
aI376
aI377
aI378
aI379
aI380
aI382
aI383
aI384
aI385
aI386
aI387
aI388
aI389
aI412
aI413
aI414
aI418
aI419
aI422
aI423
aI424
aI425
aI426
aI430
aI431
aI437
aI438
aI439
aI441
aI442
aI443
aI444
aI445
aI446
aI448
aI449
aI450
aI451
aI452
aI453
aI454
aI455
aI456
aI458
aI460
aI462
aI463
aI464
aI465
aI466
aI467
aI468
aI469
aI470
aI471
aI472
aI474
aI475
aI476
aI478
aI480
aI481
aI482
aI483
aI484
aI485
aI487
aI488
aI489
aI491
aI493
aI494
aI495
aI501
aI502
aI503
aI505
aI506
aI507
aI508
aI509
aI510
aI511
aI512
aI514
aI515
aI519
aI520
aI522
aI524
aI525
aI526
aI527
aI529
aI530
aI531
aI532
aI533
aI534
aI535
aI536
aI537
aI547
aI548
aI549
aI554
aI555
aI558
aI561
aI563
aI565
aI570
aI571
aI572
aI576
aI581
aI587
aI588
aI589
aI590
aI592
aI593
aI594
aI595
atRp491
sS'/Library/Frameworks/Python.framework/Versions/2.7/lib/python2.7/site-packages/boto3/resources/params.py'
p492
g3
((lp493
I51
aI101
aI14
aI16
aI17
aI19
aI22
aI25
atRp494
sS'/Library/Frameworks/Python.framework/Versions/2.7/lib/python2.7/site-packages/boto3/s3/inject.py'
p495
g3
((lp496
I13
aI15
aI16
aI17
aI18
aI21
aI22
aI23
aI24
aI25
aI26
aI27
aI284
aI542
aI543
aI42
aI53
aI57
aI317
aI318
aI584
aI585
aI81
aI93
aI94
aI624
aI625
aI382
aI383
aI134
aI135
aI681
aI682
aI176
aI434
aI435
aI30
aI723
aI724
aI213
aI485
aI486
aI250
atRp497
sS'/Library/Frameworks/Python.framework/Versions/2.7/lib/python2.7/site-packages/pyasn1/type/namedval.py'
p498
g3
((lp499
I9
aI11
aI14
aI15
aI16
aI17
aI18
aI19
aI20
aI21
aI22
aI26
aI28
aI29
aI31
aI32
aI33
aI35
aI38
aI41
aI44
aI47
aI50
aI53
aI56
aI59
aI62
aI66
aI67
aI68
aI70
aI71
aI73
aI74
aI76
aI79
aI82
aI83
atRp500
sS'/Library/Frameworks/Python.framework/Versions/2.7/lib/python2.7/site-packages/botocore/model.py'
p501
g3
((lp502
I13
aI14
aI16
aI17
aI20
aI23
aI24
aI27
aI28
aI31
aI32
aI35
aI36
aI39
aI40
aI43
aI44
aI49
aI50
aI51
aI52
aI53
aI54
aI55
aI56
aI58
aI78
aI79
aI80
aI81
aI82
aI89
aI90
aI92
aI114
aI115
aI116
aI117
aI118
aI120
aI121
aI122
aI124
aI141
aI142
aI143
aI144
aI145
aI146
aI148
aI159
aI160
aI162
aI167
aI168
aI170
aI177
aI178
aI179
aI180
aI183
aI184
aI186
aI189
aI190
aI194
aI199
aI200
aI205
aI210
aI212
aI233
aI235
aI236
aI237
aI238
aI239
aI240
aI242
aI246
aI247
aI249
aI253
aI255
aI256
aI259
aI261
aI265
aI267
aI269
aI281
aI282
aI286
aI298
aI302
aI306
aI308
aI310
aI311
aI312
aI321
aI328
aI333
aI334
aI362
aI363
aI364
aI367
aI368
aI369
aI371
aI373
aI374
aI378
aI392
aI396
aI398
aI400
aI402
aI404
aI406
aI409
aI410
aI411
aI413
aI415
aI419
aI420
aI421
aI423
aI425
aI426
aI427
aI429
aI430
aI433
aI435
aI437
aI442
aI446
aI448
aI450
aI453
aI454
aI456
aI458
aI459
aI460
aI461
aI463
aI465
aI467
aI469
aI471
aI473
aI474
aI476
aI477
aI479
aI481
aI482
aI483
aI484
aI485
aI486
aI488
aI490
aI494
aI495
aI498
aI499
aI500
aI501
aI502
aI505
aI506
aI507
aI509
aI510
aI511
aI514
aI515
aI519
aI520
aI521
aI522
aI523
aI525
aI531
aI535
aI537
aI538
aI539
aI543
aI546
aI548
aI549
aI553
aI558
aI593
aI594
aI600
aI612
aI630
aI643
aI654
aI661
aI671
aI681
aI684
aI691
aI697
aI698
aI701
atRp503
sS'/Library/Frameworks/Python.framework/Versions/2.7/lib/python2.7/site-packages/botocore/vendored/requests/api.py'
p504
g3
((lp505
I98
aI72
aI138
aI12
aI14
aI112
aI17
aI85
aI58
aI125
atRp506
sS'/Library/Frameworks/Python.framework/Versions/2.7/lib/python2.7/site-packages/cryptography/hazmat/primitives/asymmetric/rsa.py'
p507
g3
((lp508
I43
aI5
aI7
aI264
aI265
aI10
aI12
aI13
aI14
aI17
aI18
aI19
aI25
aI31
aI37
aI294
aI295
aI296
aI297
aI298
aI299
aI300
aI302
aI305
aI50
aI51
aI52
aI58
aI319
aI65
aI322
aI67
aI73
aI334
aI335
aI85
aI345
aI346
aI91
aI348
aI351
aI97
aI354
aI104
aI363
aI360
aI118
aI129
aI107
aI66
aI168
aI179
aI192
aI199
aI207
aI218
aI79
aI221
aI8
atRp509
sS'/Library/Frameworks/Python.framework/Versions/2.7/lib/python2.7/site-packages/botocore/vendored/requests/auth.py'
p510
g3
((lp511
I8
aI10
aI11
aI12
aI13
aI15
aI17
aI18
aI19
aI20
aI22
aI23
aI26
aI158
aI163
aI36
aI37
aI39
aI43
aI44
aI45
aI49
aI54
aI55
aI56
aI61
aI62
aI63
aI198
aI72
atRp512
sS'/Library/Frameworks/Python.framework/Versions/2.7/lib/python2.7/site-packages/s3transfer/manager.py'
p513
g3
((lp514
I514
aI517
aI13
aI14
aI15
aI17
aI19
aI20
aI21
aI534
aI23
aI24
aI25
aI26
aI27
aI28
aI29
aI30
aI31
aI32
aI33
aI34
aI35
aI36
aI37
aI38
aI551
aI41
aI42
aI43
aI46
aI48
aI49
aI50
aI51
aI52
aI53
aI54
aI55
aI56
aI57
aI58
aI59
aI576
aI577
aI586
aI595
aI605
aI618
aI632
aI22
aI148
aI156
aI158
aI159
aI160
aI161
aI162
aI166
aI167
aI168
aI169
aI170
aI171
aI172
aI173
aI174
aI175
aI176
aI177
aI178
aI179
aI180
aI181
aI182
aI183
aI184
aI185
aI188
aI189
aI190
aI191
aI192
aI193
aI194
aI195
aI196
aI200
aI201
aI202
aI205
aI39
aI269
aI310
aI311
aI350
aI351
aI400
aI433
aI442
aI473
aI492
aI504
atRp515
sS'/Library/Frameworks/Python.framework/Versions/2.7/lib/python2.7/site-packages/boto3/__init__.py'
p516
g3
((lp517
I64
aI98
aI71
aI72
aI74
aI77
aI14
aI16
aI83
aI20
aI86
aI24
aI27
aI97
aI34
aI37
aI102
aI19
atRp518
sS'/Library/Frameworks/Python.framework/Versions/2.7/lib/python2.7/site-packages/dateutil/tz/win.py'
p519
g3
((lp520
I2
aI3
aI5
atRp521
sS'/Library/Frameworks/Python.framework/Versions/2.7/lib/python2.7/site-packages/concurrent/futures/__init__.py'
p522
g3
((lp523
I4
aI6
aI8
aI17
aI19
aI20
atRp524
sS'/Library/Frameworks/Python.framework/Versions/2.7/lib/python2.7/site-packages/botocore/waiter.py'
p525
g3
((lp526
I132
aI265
aI138
aI139
aI13
aI14
aI15
aI17
aI18
aI19
aI20
aI149
aI23
aI26
aI158
aI159
aI166
aI266
aI287
aI189
aI199
aI78
aI79
aI82
aI89
aI90
aI219
aI92
aI239
aI116
aI251
aI124
atRp527
sS'/Library/Frameworks/Python.framework/Versions/2.7/lib/python2.7/site-packages/pyasn1/codec/cer/__init__.py'
p528
g3
((lp529
I1
atRp530
sS'/Library/Frameworks/Python.framework/Versions/2.7/lib/python2.7/site-packages/botocore/vendored/requests/packages/__init__.py'
p531
g3
((lp532
I1
aI3
atRp533
sS'/Library/Frameworks/Python.framework/Versions/2.7/lib/python2.7/hmac.py'
p534
g3
((lp535
I4
aI6
aI136
aI11
aI12
aI16
aI21
aI23
aI27
aI28
aI30
aI40
aI43
aI47
aI48
aI8
aI52
aI53
aI54
aI56
aI57
aI58
aI71
aI74
aI75
aI76
aI77
aI78
aI83
aI86
aI88
aI100
aI105
aI106
aI107
aI109
aI116
aI117
aI119
aI122
aI123
aI125
atRp536
sS'/Library/Frameworks/Python.framework/Versions/2.7/lib/python2.7/site-packages/botocore/vendored/requests/hooks.py'
p537
g3
((lp538
I14
aI17
aI20
aI21
aI22
aI23
aI24
aI29
aI32
aI34
aI35
aI37
aI40
aI41
aI42
aI45
atRp539
sS'/Library/Frameworks/Python.framework/Versions/2.7/lib/python2.7/site-packages/packaging/_structures.py'
p540
g3
((lp541
I4
aI7
aI9
aI12
aI15
aI18
aI21
aI24
aI27
aI30
aI33
aI36
aI39
aI41
aI44
aI47
aI50
aI53
aI56
aI59
aI62
aI65
aI68
atRp542
sS'/Library/Frameworks/Python.framework/Versions/2.7/lib/python2.7/site-packages/jmespath/functions.py'
p543
g3
((lp544
I1
aI2
aI3
aI5
aI6
aI7
aI44
aI11
aI268
aI13
aI14
aI15
aI16
aI17
aI18
aI19
aI20
aI21
aI22
aI282
aI27
aI28
aI29
aI30
aI261
aI32
aI33
aI34
aI38
aI39
aI40
aI41
aI42
aI43
aI300
aI45
aI48
aI49
aI50
aI51
aI52
aI55
aI56
aI315
aI60
aI181
aI66
aI73
aI335
aI81
aI342
aI92
aI349
aI102
aI363
aI109
aI12
aI275
aI63
aI132
aI145
aI31
aI173
aI177
aI286
aI187
aI194
aI202
aI290
aI219
aI223
aI227
aI231
aI235
aI296
aI242
aI246
aI250
aI254
atRp545
sS'/Library/Frameworks/Python.framework/Versions/2.7/lib/python2.7/multiprocessing/process.py'
p546
g3
((lp547
I35
aI294
aI295
aI41
aI42
aI43
aI44
aI50
aI51
aI308
aI310
aI311
aI312
aI313
aI314
aI315
aI316
aI317
aI318
aI319
aI65
aI322
aI328
aI330
aI331
aI76
aI86
aI91
aI92
aI94
aI59
aI109
aI116
aI321
aI136
aI142
aI152
aI170
aI174
aI179
aI186
aI194
aI198
aI332
aI205
aI214
aI224
aI226
aI250
atRp548
sS'/Library/Frameworks/Python.framework/Versions/2.7/lib/python2.7/site-packages/cryptography/__init__.py'
p549
g3
((lp550
I5
aI7
aI8
aI10
aI17
aI18
aI21
atRp551
sS'/Library/Frameworks/Python.framework/Versions/2.7/lib/python2.7/site-packages/boto3/s3/transfer.py'
p552
g3
((lp553
I129
aI130
aI131
aI132
aI133
aI262
aI135
aI138
aI139
aI142
aI289
aI290
aI163
aI164
aI165
aI166
aI170
aI171
aI172
aI173
aI174
aI175
aI176
aI316
aI321
aI324
aI328
aI333
aI334
aI337
aI228
aI237
aI238
aI239
aI241
aI124
aI125
aI126
aI127
atRp554
sS'/Library/Frameworks/Python.framework/Versions/2.7/lib/python2.7/xml/etree/__init__.py'
p555
g3
((lp556
I1
atRp557
sS'/Library/Frameworks/Python.framework/Versions/2.7/lib/python2.7/re.py'
p558
g3
((lp559
I260
aI261
aI262
aI266
aI267
aI268
aI269
aI270
aI271
aI274
aI276
aI277
aI286
aI287
aI290
aI291
aI292
aI141
aI155
aI181
aI194
aI210
aI211
aI212
aI213
aI214
aI217
aI218
aI232
aI233
aI234
aI235
aI236
aI237
aI238
aI239
aI240
aI241
aI242
aI246
aI248
aI249
aI252
aI253
aI254
aI255
atRp560
sS'/Library/Frameworks/Python.framework/Versions/2.7/lib/python2.7/site-packages/s3transfer/__init__.py'
p561
g3
((lp562
I515
aI548
aI568
aI570
aI571
aI572
aI573
aI574
aI582
aI585
aI586
aI587
aI588
aI589
aI593
aI594
aI595
aI596
aI597
aI598
aI599
aI600
aI601
aI602
aI603
aI604
aI605
aI606
aI607
aI608
aI609
aI610
aI611
aI614
aI624
aI125
aI126
aI127
aI128
aI129
aI130
aI131
aI132
aI133
aI646
aI136
aI137
aI139
aI141
aI142
aI656
aI145
aI146
aI149
aI150
aI154
aI155
aI157
aI159
aI160
aI163
aI167
aI682
aI173
aI690
aI179
aI180
aI183
aI185
aI698
aI705
aI724
aI733
aI224
aI225
aI226
aI257
aI262
aI273
aI276
aI279
aI657
aI286
aI289
aI292
aI134
aI300
aI303
aI306
aI315
aI316
aI317
aI321
aI737
aI328
aI329
aI332
aI337
aI340
aI349
aI353
aI357
aI358
aI359
aI360
aI364
aI370
aI379
aI398
aI414
aI428
aI438
aI439
aI445
aI450
aI460
aI462
aI470
aI487
aI492
aI506
atRp563
sS'/Library/Frameworks/Python.framework/Versions/2.7/lib/python2.7/json/__init__.py'
p564
g3
((lp565
I258
aI259
aI294
aI295
aI336
aI337
aI338
aI340
aI341
aI342
aI344
aI345
aI346
aI348
aI350
aI352
aI99
aI100
aI102
aI103
aI106
aI108
aI109
aI111
aI112
aI113
aI114
aI115
aI116
aI117
aI118
aI119
aI122
aI123
aI124
aI193
aI194
aI195
aI240
aI241
aI242
aI245
aI246
aI247
aI248
aI249
aI250
aI251
aI254
aI255
atRp566
sS'/Library/Frameworks/Python.framework/Versions/2.7/lib/python2.7/fnmatch.py'
p567
g3
((lp568
I40
aI41
aI42
aI43
aI76
aI77
aI78
aI79
aI80
aI82
aI83
aI91
aI92
aI93
aI94
aI95
aI96
aI97
aI98
aI100
aI119
aI120
atRp569
sS'/Library/Frameworks/Python.framework/Versions/2.7/lib/python2.7/site-packages/s3transfer/utils.py'
p570
g3
((lp571
I512
aI518
aI524
aI525
aI14
aI15
aI528
aI17
aI18
aI19
aI20
aI21
aI22
aI23
aI536
aI25
aI26
aI29
aI33
aI34
aI35
aI38
aI552
aI42
aI48
aI565
aI55
aI586
aI587
aI13
aI83
aI597
aI601
aI16
aI529
aI623
aI113
aI129
aI147
aI660
aI661
aI662
aI667
aI159
aI164
aI165
aI170
aI684
aI174
aI178
aI182
aI183
aI698
aI189
aI194
aI204
aI214
aI226
aI227
aI230
aI237
aI243
aI246
aI255
aI258
aI288
aI289
aI316
aI322
aI326
aI330
aI334
aI338
aI343
aI347
aI351
aI355
aI357
aI148
aI405
aI406
aI407
aI438
aI443
aI454
aI459
aI464
aI467
aI470
aI478
aI484
aI487
aI495
aI498
aI501
aI510
aI511
atRp572
sS'/Library/Frameworks/Python.framework/Versions/2.7/lib/python2.7/site-packages/pyasn1/compat/__init__.py'
p573
g3
((lp574
I1
atRp575
sS'/Library/Frameworks/Python.framework/Versions/2.7/lib/python2.7/site-packages/boto3/docs/__init__.py'
p576
g3
((lp577
I18
aI13
aI15
atRp578
sS'/Library/Frameworks/Python.framework/Versions/2.7/lib/python2.7/codecs.py'
p579
g3
((lp580
I96
aI97
aI98
aI99
aI100
aI101
aI102
aI103
aI105
aI95
atRp581
sS'/Library/Frameworks/Python.framework/Versions/2.7/lib/python2.7/site-packages/botocore/vendored/requests/packages/urllib3/poolmanager.py'
p582
g3
((lp583
I1
aI3
aI4
aI5
aI6
aI8
aI265
aI10
aI11
aI12
aI13
aI14
aI17
aI20
aI21
aI22
aI279
aI25
aI28
aI31
aI9
aI57
aI59
aI61
aI62
aI63
aI64
aI65
aI67
aI70
aI75
aI83
aI84
aI85
aI90
aI92
aI101
aI109
aI112
aI113
aI114
aI116
aI119
aI120
aI121
aI124
aI125
aI127
aI129
aI138
aI139
aI141
aI192
aI217
aI219
aI220
aI242
aI250
atRp584
sS'/Library/Frameworks/Python.framework/Versions/2.7/lib/python2.7/ctypes/__init__.py'
p585
g3
((lp586
I1
aI3
aI5
aI7
aI8
aI9
aI10
aI11
aI12
aI14
aI16
aI19
aI22
aI23
aI29
aI32
aI49
aI67
aI74
aI75
aI91
aI92
aI94
aI96
aI98
aI99
aI100
aI101
aI102
aI103
aI104
aI105
aI106
aI108
aI137
aI138
aI140
aI141
aI142
aI144
aI147
aI148
aI150
aI151
aI152
aI156
aI157
aI158
aI163
aI165
aI166
aI167
aI169
aI170
aI171
aI173
aI174
aI175
aI177
aI178
aI179
aI181
aI186
aI187
aI188
aI190
aI191
aI192
aI194
aI195
aI196
aI198
aI199
aI200
aI202
aI203
aI204
aI207
aI209
aI210
aI223
aI224
aI225
aI228
aI230
aI231
aI232
aI233
aI235
aI236
aI237
aI238
aI240
aI241
aI242
aI248
aI250
aI252
aI253
aI254
aI255
aI257
aI258
aI260
aI262
aI263
aI264
aI265
aI268
aI270
aI271
aI276
aI278
aI279
aI283
aI286
aI288
aI289
aI291
aI292
aI294
aI313
aI323
aI329
aI342
aI343
aI344
aI346
aI347
aI348
aI350
aI351
aI352
aI353
aI354
aI355
aI357
aI360
aI361
aI362
aI363
aI365
aI366
aI370
aI376
aI377
aI379
aI380
aI381
aI383
aI384
aI385
aI386
aI387
aI389
aI393
aI394
aI396
aI429
aI430
aI431
aI433
aI440
aI443
aI446
aI447
aI449
aI451
aI454
aI457
aI474
aI477
aI478
aI479
aI486
aI489
aI492
aI494
aI495
aI496
aI497
aI498
aI499
aI501
aI502
aI505
aI506
aI512
aI513
aI517
aI518
aI525
aI541
aI544
aI545
aI546
aI547
aI548
aI549
aI550
aI551
aI552
aI553
aI554
aI556
atRp587
sS'/Library/Frameworks/Python.framework/Versions/2.7/lib/python2.7/site-packages/certifi/__init__.py'
p588
g3
((lp589
I1
aI3
atRp590
sS'/Library/Frameworks/Python.framework/Versions/2.7/lib/python2.7/site-packages/botocore/vendored/requests/packages/urllib3/connection.py'
p591
g3
((lp592
I1
aI2
aI3
aI4
aI5
aI6
aI8
aI9
aI10
aI11
aI14
aI15
aI16
aI19
aI20
aI21
aI22
aI30
aI32
aI33
aI34
aI35
aI38
aI43
aI45
aI53
aI55
aI56
aI57
aI60
aI63
aI88
aI90
aI94
aI97
aI99
aI100
aI104
aI106
aI115
aI118
aI120
aI125
aI126
aI129
aI130
aI132
aI133
aI134
aI141
aI143
aI154
aI159
aI160
aI162
aI163
aI175
aI181
aI185
aI186
aI187
aI188
aI189
aI191
aI192
aI193
aI195
aI196
aI197
aI198
aI199
aI200
aI202
aI204
aI206
aI207
aI209
aI210
aI224
aI225
aI234
aI235
aI236
aI237
aI238
aI240
aI243
aI244
aI245
aI246
aI253
aI255
aI259
aI261
aI262
atRp593
sS'/Library/Frameworks/Python.framework/Versions/2.7/lib/python2.7/encodings/unicode_escape.py'
p594
g3
((lp595
I8
aI9
aI13
aI17
aI18
aI20
aI21
aI24
aI25
aI28
aI29
aI31
aI32
aI36
aI37
aI38
aI39
aI40
aI41
aI42
aI43
aI44
atRp596
sS'/Library/Frameworks/Python.framework/Versions/2.7/lib/python2.7/site-packages/botocore/vendored/requests/packages/chardet/__init__.py'
p597
g3
((lp598
I18
aI19
aI22
atRp599
sS'/Library/Frameworks/Python.framework/Versions/2.7/lib/python2.7/_LWPCookieJar.py'
p600
g3
((lp601
I12
aI14
aI15
aI49
aI20
aI78
aI60
aI93
aI62
atRp602
sS'/Library/Frameworks/Python.framework/Versions/2.7/lib/python2.7/UserDict.py'
p603
g3
((lp604
I5
aI8
aI9
aI10
aI12
aI14
aI21
aI22
aI23
aI25
aI92
aI93
aI94
aI36
aI37
aI104
aI56
aI57
atRp605
sS'/Library/Frameworks/Python.framework/Versions/2.7/lib/python2.7/site-packages/boto3/docs/client.py'
p606
g3
((lp607
I16
aI17
aI13
atRp608
sS'/Library/Frameworks/Python.framework/Versions/2.7/lib/python2.7/site-packages/botocore/vendored/requests/models.py'
p609
g3
((lp610
I8
aI10
aI11
aI13
aI14
aI15
aI17
aI18
aI19
aI20
aI21
aI22
aI24
aI27
aI31
aI34
aI39
aI40
aI41
aI42
aI43
aI45
aI46
aI47
aI49
aI52
aI53
aI57
aI59
aI61
aI62
aI65
aI67
aI68
aI69
aI70
aI72
aI74
aI83
aI84
aI85
aI87
aI88
aI89
aI97
aI101
aI162
aI163
aI174
aI186
aI209
aI211
aI212
aI213
aI214
aI215
aI216
aI217
aI218
aI219
aI220
aI223
aI224
aI225
aI226
aI227
aI229
aI230
aI233
aI234
aI235
aI236
aI237
aI238
aI239
aI240
aI241
aI243
aI246
aI264
aI281
aI283
aI285
aI287
aI289
aI292
aI294
aI296
aI298
aI299
aI300
aI315
aI318
aI328
aI330
aI331
aI332
aI334
aI341
aI344
aI349
aI354
aI355
aI359
aI364
aI368
aI369
aI374
aI375
aI377
aI378
aI382
aI385
aI386
aI387
aI388
aI389
aI390
aI391
aI392
aI393
aI394
aI397
aI398
aI404
aI405
aI407
aI410
aI411
aI413
aI415
aI422
aI423
aI424
aI426
aI430
aI431
aI432
aI435
aI436
aI440
aI452
aI455
aI456
aI457
aI458
aI462
aI465
aI468
aI470
aI471
aI475
aI476
aI477
aI478
aI479
aI480
aI482
aI486
aI487
aI488
aI490
aI504
aI515
aI518
aI520
aI521
aI524
aI534
aI537
aI540
aI541
aI542
aI543
aI544
aI545
aI546
aI547
aI548
aI549
aI552
aI553
aI555
aI556
aI559
aI564
aI569
aI572
aI575
aI580
aI583
aI586
aI594
aI598
aI600
aI611
aI619
aI622
aI626
aI630
aI634
aI642
aI647
aI649
aI654
aI659
aI669
aI670
aI672
aI673
aI674
aI689
aI691
aI694
aI696
aI698
aI700
aI703
aI705
aI736
aI740
aI742
aI743
aI747
aI750
aI755
aI758
aI760
aI798
aI821
aI839
aI853
atRp611
sS'/Library/Frameworks/Python.framework/Versions/2.7/lib/python2.7/site-packages/botocore/regions.py'
p612
g3
((lp613
I18
aI19
aI20
aI22
aI24
aI25
aI26
aI29
aI30
aI31
aI60
aI67
aI68
aI88
aI89
aI90
aI94
aI96
aI98
aI104
aI105
aI106
aI107
aI108
aI109
aI110
aI111
aI113
aI114
aI115
aI116
aI118
aI120
aI121
aI122
aI123
aI124
aI126
aI128
aI129
aI131
aI137
aI138
aI139
aI155
aI162
aI163
aI164
aI165
aI167
aI168
aI169
aI170
aI171
aI172
aI176
aI177
aI179
aI180
aI181
aI182
aI184
aI186
aI187
aI188
atRp614
sS'/Library/Frameworks/Python.framework/Versions/2.7/lib/python2.7/uuid.py'
p615
g3
((lp616
I512
aI518
aI523
aI525
aI553
aI555
aI45
aI47
aI49
aI52
aI53
aI55
aI590
aI596
aI600
aI608
aI609
aI610
aI611
aI101
aI103
aI104
aI130
aI132
aI133
aI134
aI135
aI137
aI138
aI144
aI148
aI168
aI169
aI171
aI180
aI182
aI187
aI190
aI193
aI196
aI199
aI204
aI210
aI212
aI217
aI219
aI223
aI225
aI228
aI230
aI233
aI235
aI238
aI240
aI243
aI245
aI248
aI250
aI254
aI256
aI260
aI262
aI265
aI267
aI270
aI272
aI275
aI277
aI287
aI289
aI294
aI296
aI314
aI339
aI348
aI372
aI377
aI403
aI425
aI457
aI458
aI459
aI460
aI464
aI465
aI466
aI467
aI468
aI469
aI472
aI473
aI474
aI475
aI484
aI485
aI486
aI487
aI497
aI498
aI499
aI500
aI501
aI502
aI506
atRp617
sS'/Library/Frameworks/Python.framework/Versions/2.7/lib/python2.7/site-packages/pyasn1/compat/octets.py'
p618
g3
((lp619
I7
aI9
aI10
aI12
aI13
aI14
aI16
aI18
aI20
aI22
aI24
atRp620
sS'/Library/Frameworks/Python.framework/Versions/2.7/lib/python2.7/numbers.py'
p621
g3
((lp622
I258
aI6
aI263
aI8
aI9
aI267
aI13
aI270
aI271
aI273
aI18
aI19
aI20
aI23
aI284
aI34
aI295
aI296
aI298
aI43
aI300
aI45
aI47
aI305
aI52
aI309
aI310
aI56
aI64
aI11
aI325
aI72
aI330
aI77
aI335
aI82
aI340
aI87
aI345
aI92
aI350
aI96
aI355
aI100
aI360
aI105
aI365
aI110
aI370
aI275
aI118
aI376
aI123
aI380
aI385
aI131
aI390
aI391
aI136
aI279
aI141
aI320
aI146
aI151
aI156
aI161
aI166
aI169
aI176
aI178
aI180
aI187
aI200
aI208
aI216
aI221
aI226
aI231
aI236
aI243
aI249
aI253
atRp623
sS'/Library/Frameworks/Python.framework/Versions/2.7/lib/python2.7/site-packages/ndg/httpsclient/ssl_peer_verification.py'
p624
g3
((lp625
I2
aI3
aI4
aI5
aI6
aI7
aI8
aI9
aI10
aI11
aI13
aI14
aI15
aI16
aI28
aI30
aI31
aI32
aI33
aI34
aI35
aI36
aI37
aI38
aI39
aI40
aI41
aI43
aI44
aI45
aI46
aI48
aI50
aI87
aI160
aI168
aI196
aI199
aI222
aI223
aI224
aI227
aI230
aI236
aI237
aI238
atRp626
sS'/Library/Frameworks/Python.framework/Versions/2.7/lib/python2.7/site-packages/jmespath/ast.py'
p627
g3
((lp628
I5
aI9
aI13
aI17
aI21
aI25
aI29
aI33
aI37
aI41
aI45
aI49
aI53
aI57
aI61
aI65
aI69
aI73
aI77
aI81
aI85
aI89
atRp629
sS'/Library/Frameworks/Python.framework/Versions/2.7/lib/python2.7/Cookie.py'
p630
g3
((lp631
I531
aI532
aI533
aI546
aI558
aI562
aI572
aI582
aI586
aI593
aI603
aI613
aI615
aI623
aI633
aI648
aI453
aI682
aI688
aI689
aI691
aI696
aI203
aI709
aI710
aI715
aI718
aI210
aI212
aI213
aI217
aI219
aI220
aI734
aI223
aI224
aI740
aI229
aI230
aI746
aI722
aI244
aI245
aI246
aI247
aI248
aI249
aI250
aI763
aI252
aI253
aI254
aI767
aI256
aI261
aI263
aI265
aI266
aI267
aI268
aI269
aI270
aI271
aI272
aI273
aI274
aI275
aI276
aI277
aI278
aI279
aI280
aI281
aI282
aI283
aI284
aI285
aI286
aI287
aI288
aI289
aI290
aI291
aI292
aI293
aI294
aI295
aI296
aI297
aI298
aI299
aI300
aI301
aI302
aI303
aI304
aI305
aI306
aI307
aI222
aI310
aI312
aI313
aI735
aI327
aI328
aI330
aI380
aI382
aI383
aI384
aI386
aI405
aI419
aI420
aI421
aI422
aI423
aI424
aI425
aI426
aI429
aI431
aI440
aI447
aI452
aI758
aI467
aI470
aI472
aI476
aI251
aI487
aI255
atRp632
sS'/Library/Frameworks/Python.framework/Versions/2.7/lib/python2.7/site-packages/OpenSSL/__init__.py'
p633
g3
((lp634
I6
aI8
aI9
aI16
aI18
aI19
atRp635
sS'lifecycleModule.py'
p636
g3
((lp637
I18
aI19
aI20
aI21
aI22
aI23
aI24
aI25
aI29
aI40
aI54
aI81
aI103
aI136
aI137
aI138
aI140
aI141
aI142
aI143
aI144
aI145
aI147
aI148
aI150
aI152
aI153
aI154
aI155
aI156
aI157
aI158
aI159
aI160
aI161
aI162
aI163
aI165
aI166
aI167
aI168
aI170
aI171
aI172
aI174
aI175
aI176
aI180
aI181
aI182
aI185
aI187
aI190
aI191
aI197
aI198
aI200
aI204
aI239
aI241
aI242
aI243
aI244
aI245
aI246
aI247
aI248
aI249
aI250
aI251
aI255
aI264
aI265
aI266
aI267
aI268
aI269
aI270
aI271
aI272
aI273
aI277
aI282
aI287
aI293
aI298
aI304
aI310
aI316
aI317
aI318
aI328
aI329
aI330
aI331
aI332
aI333
aI339
aI343
aI344
aI345
aI346
aI353
aI354
aI355
aI356
aI360
aI362
aI363
aI367
aI371
aI372
aI379
aI380
aI381
aI384
aI387
aI388
aI391
aI392
aI393
aI399
aI401
aI402
aI405
aI406
aI409
aI410
aI418
aI420
aI466
aI467
aI471
aI472
aI473
aI474
aI475
aI476
aI477
aI478
aI484
aI486
aI487
aI488
atRp638
sS'/Library/Frameworks/Python.framework/Versions/2.7/lib/python2.7/site-packages/botocore/configloader.py'
p639
g3
((lp640
I257
aI258
aI259
aI263
aI266
aI267
aI14
aI15
aI16
aI17
aI19
aI21
aI24
aI87
aI96
aI106
aI107
aI110
aI140
aI141
aI142
aI143
aI144
aI145
aI147
aI148
aI149
aI154
aI155
aI156
aI157
aI158
aI167
aI168
aI171
aI177
aI197
aI248
aI249
aI250
aI251
aI252
aI253
aI254
atRp641
sS'/Library/Frameworks/Python.framework/Versions/2.7/lib/python2.7/site-packages/enum/__init__.py'
p642
g3
((lp643
I1
aI3
aI5
aI7
aI9
aI11
aI12
aI20
aI21
aI25
aI26
aI32
aI33
aI38
aI46
aI47
aI48
aI50
aI51
aI53
aI55
aI58
aI62
aI65
aI66
aI67
aI70
aI72
aI73
aI74
aI75
aI78
aI80
aI81
aI86
aI94
aI100
aI101
aI102
aI103
aI105
aI121
aI123
aI125
aI128
aI129
aI130
aI133
aI134
aI137
aI138
aI144
aI147
aI148
aI149
aI153
aI158
aI159
aI160
aI161
aI162
aI164
aI165
aI166
aI169
aI170
aI171
aI174
aI175
aI176
aI177
aI178
aI191
aI192
aI198
aI200
aI201
aI202
aI203
aI206
aI209
aI215
aI216
aI217
aI218
aI219
aI220
aI223
aI225
aI226
aI227
aI228
aI233
aI234
aI235
aI236
aI239
aI240
aI245
aI248
aI249
aI251
aI252
aI256
aI271
aI272
aI273
aI275
aI276
aI283
aI284
aI285
aI286
aI287
aI288
aI290
aI295
aI300
aI302
aI303
aI310
aI312
aI316
aI319
aI321
aI322
aI324
aI330
aI351
aI354
aI362
aI366
aI376
aI385
aI386
aI392
aI395
aI398
aI401
aI404
aI406
aI409
aI417
aI418
aI420
aI422
aI483
aI491
aI492
aI498
aI499
aI500
aI501
aI505
aI511
aI512
aI513
aI515
aI520
aI521
aI522
aI524
aI525
aI527
aI529
aI530
aI542
aI543
aI544
aI546
aI547
aI548
aI551
aI554
aI555
aI556
aI557
aI558
aI559
aI560
aI561
aI562
aI563
aI564
aI566
aI569
aI571
aI572
aI573
aI574
aI576
aI581
aI582
aI584
aI586
aI641
aI642
aI644
aI663
aI664
aI666
aI669
aI670
aI672
aI674
aI675
aI677
aI689
aI703
aI704
aI710
aI724
aI726
aI727
aI729
aI731
aI732
aI734
aI736
aI737
aI739
aI741
aI742
aI745
aI749
aI750
aI752
aI756
aI757
aI759
aI761
aI762
aI764
aI766
aI767
aI776
aI779
aI780
aI782
aI784
aI785
aI786
aI788
aI789
aI809
aI810
aI812
aI813
aI818
aI819
aI821
aI824
atRp644
sS'/Library/Frameworks/Python.framework/Versions/2.7/lib/python2.7/site-packages/pyasn1/codec/ber/decoder.py'
p645
g3
((lp646
I515
aI516
aI517
aI519
aI8
aI9
aI10
aI11
aI13
aI16
aI17
aI19
aI23
aI28
aI29
aI31
aI42
aI43
aI46
aI561
aI562
aI565
aI566
aI55
aI56
aI569
aI570
aI59
aI573
aI574
aI577
aI578
aI581
aI582
aI585
aI586
aI589
aI590
aI593
aI594
aI597
aI598
aI601
aI90
aI92
aI606
aI607
aI610
aI611
aI614
aI615
aI104
aI105
aI618
aI619
aI620
aI621
aI622
aI623
aI112
aI113
aI626
aI531
aI116
aI629
aI89
aI631
aI632
aI633
aI634
aI635
aI636
aI637
aI638
aI639
aI640
aI641
aI643
aI644
aI645
aI649
aI650
aI651
aI652
aI86
aI654
aI655
aI145
aI107
aI660
aI663
aI664
aI666
aI667
aI670
aI671
aI672
aI624
aI674
aI675
aI602
aI677
aI678
aI679
aI168
aI170
aI114
aI627
aI57
aI185
aI204
aI205
aI207
aI216
aI217
aI219
aI111
aI268
aI269
aI271
aI7
aI653
aI337
aI338
aI340
aI625
aI346
aI349
aI370
aI398
aI399
aI401
aI418
aI70
aI628
aI949
aI442
aI443
aI445
aI448
aI456
aI457
aI460
aI461
aI462
aI464
aI165
aI166
aI488
aI167
atRp647
sS'/Library/Frameworks/Python.framework/Versions/2.7/lib/python2.7/sre_parse.py'
p648
g3
((lp649
I69
aI70
aI71
aI72
aI73
aI76
aI77
aI78
aI79
aI80
aI83
aI84
aI85
aI87
aI89
aI94
aI95
aI96
aI97
aI98
aI139
aI141
aI143
aI144
aI145
aI147
aI151
aI154
aI155
aI156
aI157
aI158
aI159
aI160
aI161
aI162
aI163
aI164
aI165
aI166
aI167
aI168
aI169
aI173
aI174
aI175
aI176
aI177
aI178
aI179
aI180
aI181
aI182
aI183
aI184
aI186
aI187
aI191
aI192
aI193
aI195
aI196
aI197
aI198
aI199
aI200
aI201
aI204
aI205
aI206
aI208
aI209
aI210
aI211
aI212
aI214
aI215
aI216
aI218
aI220
aI223
aI226
aI230
aI232
aI233
aI235
aI239
aI240
aI241
aI242
aI243
aI244
aI245
aI246
aI247
aI249
aI250
aI251
aI252
aI254
aI255
aI261
aI263
aI264
aI273
aI280
aI281
aI282
aI283
aI284
aI285
aI286
aI287
aI288
aI295
aI300
aI302
aI310
aI311
aI312
aI314
aI319
aI321
aI322
aI331
aI339
aI340
aI341
aI342
aI343
aI344
aI345
aI346
aI347
aI348
aI349
aI353
aI354
aI356
aI357
aI360
aI361
aI362
aI363
aI365
aI366
aI367
aI368
aI372
aI373
aI374
aI375
aI376
aI379
aI380
aI381
aI385
aI386
aI387
aI388
aI389
aI390
aI392
aI393
aI416
aI419
aI420
aI421
aI422
aI423
aI424
aI425
aI426
aI428
aI430
aI431
aI432
aI433
aI434
aI436
aI438
aI439
aI440
aI441
aI442
aI443
aI444
aI445
aI447
aI448
aI450
aI452
aI453
aI456
aI457
aI459
aI460
aI461
aI462
aI463
aI464
aI465
aI466
aI467
aI470
aI472
aI473
aI474
aI475
aI476
aI477
aI478
aI479
aI480
aI481
aI483
aI484
aI486
aI487
aI488
aI490
aI494
aI495
aI496
aI499
aI500
aI501
aI502
aI505
aI507
aI509
aI510
aI511
aI512
aI514
aI515
aI516
aI517
aI520
aI521
aI522
aI523
aI524
aI525
aI526
aI527
aI529
aI530
aI531
aI532
aI533
aI534
aI535
aI536
aI538
aI539
aI540
aI542
aI547
aI548
aI551
aI553
aI555
aI556
aI558
aI560
aI561
aI563
aI564
aI565
aI566
aI567
aI568
aI570
aI572
aI574
aI575
aI576
aI577
aI579
aI580
aI581
aI582
aI583
aI585
aI588
aI590
aI591
aI592
aI593
aI595
aI596
aI597
aI598
aI600
aI603
aI604
aI607
aI612
aI613
aI619
aI621
aI622
aI631
aI633
aI634
aI635
aI636
aI638
aI639
aI640
aI641
aI642
aI643
aI644
aI646
aI647
aI649
aI650
aI651
aI681
aI683
aI684
aI685
aI687
aI689
aI691
aI692
aI695
aI696
aI698
aI699
aI700
aI702
aI703
aI704
aI706
aI707
aI710
aI711
aI713
aI714
aI716
aI717
aI718
aI723
aI728
aI730
aI731
aI732
aI733
aI735
aI736
aI743
aI744
aI746
aI749
aI752
aI754
aI757
aI762
aI763
aI764
aI765
aI766
aI767
aI770
aI771
aI772
aI773
aI776
aI777
aI778
aI779
aI780
aI782
aI783
aI808
aI814
aI815
aI816
aI823
aI824
aI835
aI837
aI838
aI839
aI840
aI841
aI842
aI843
aI846
aI847
aI848
aI851
aI852
aI853
aI854
aI855
aI856
aI857
aI858
aI862
atRp650
sS'/Library/Frameworks/Python.framework/Versions/2.7/lib/python2.7/site-packages/pyasn1/type/base.py'
p651
g3
((lp652
I513
aI514
aI517
aI518
aI7
aI8
aI9
aI522
aI11
aI524
aI14
aI15
aI529
aI18
aI532
aI21
aI535
aI25
aI538
aI28
aI30
aI31
aI32
aI545
aI34
aI35
aI548
aI38
aI551
aI40
aI41
aI554
aI557
aI47
aI560
aI50
aI53
aI521
aI56
aI59
aI526
aI111
aI113
aI114
aI115
aI116
aI119
aI127
aI130
aI132
aI134
aI135
aI136
aI137
aI139
aI141
aI142
aI143
aI144
aI146
aI147
aI149
aI151
aI153
aI158
aI161
aI165
aI167
aI169
aI170
aI171
aI172
aI173
aI174
aI176
aI177
aI178
aI179
aI180
aI182
aI192
aI195
aI198
aI201
aI204
aI207
aI210
aI213
aI214
aI36
aI220
aI223
aI242
aI42
aI275
aI276
aI307
aI308
aI309
aI310
aI315
aI316
aI319
aI321
aI322
aI324
aI327
aI341
aI345
aI368
aI385
aI389
aI391
aI392
aI393
aI394
aI395
aI397
aI398
aI399
aI401
aI402
aI403
aI405
aI418
aI421
aI424
aI427
aI430
aI433
aI436
aI437
aI443
aI446
aI449
aI483
aI484
aI507
aI508
aI85
atRp653
sS'/Library/Frameworks/Python.framework/Versions/2.7/lib/python2.7/cookielib.py'
p654
g3
((lp655
I26
aI28
aI29
aI30
aI32
aI33
aI34
aI37
aI38
aI40
aI41
aI43
aI44
aI45
aI1073
aI53
aI54
aI57
aI1091
aI71
aI72
aI1100
aI80
aI81
aI82
aI83
aI84
aI86
aI1112
aI1118
aI1124
aI103
aI1138
aI120
aI122
aI123
aI1217
aI1160
aI137
aI1182
aI1191
aI1192
aI1193
aI1194
aI1196
aI1198
aI1199
aI190
aI191
aI193
aI194
aI195
aI1223
aI1225
aI1226
aI1227
aI1228
aI1229
aI1231
aI1233
aI1234
aI211
aI212
aI1238
aI1239
aI1241
aI1244
aI1262
aI1264
aI1265
aI1235
aI1269
aI1747
aI1236
aI1279
aI1281
aI1283
aI1284
aI268
aI283
aI284
aI1052
aI1326
aI1328
aI1334
aI1335
aI1336
aI1338
aI1340
aI317
aI1342
aI1343
aI322
aI323
aI324
aI1349
aI326
aI1357
aI1359
aI1361
aI411
aI412
aI1458
aI1267
aI437
aI927
aI444
aI512
aI513
aI1550
aI528
aI1559
aI1571
aI1574
aI1575
aI1576
aI1578
aI1579
aI1581
aI1585
aI567
aI577
aI597
aI598
aI1625
aI1638
aI614
aI785
aI625
aI1651
aI1653
aI1654
aI1655
aI1656
aI1658
aI635
aI1663
aI1665
aI651
aI652
aI653
aI655
aI1692
aI671
aI1707
aI1717
aI1718
aI1719
aI1720
aI1724
aI1726
aI1727
aI1729
aI706
aI1735
aI1740
aI723
aI1749
aI1750
aI1752
aI739
aI1767
aI1771
aI751
aI1783
aI1784
aI783
aI1809
aI1810
aI787
aI790
aI796
aI806
aI821
aI829
aI830
aI839
aI843
aI848
aI854
aI855
aI857
aI858
aI859
aI861
aI862
aI865
aI866
aI867
aI868
aI869
aI870
aI871
aI872
aI873
aI874
aI877
aI878
aI879
aI880
aI881
aI882
aI883
aI884
aI885
aI886
aI888
aI891
aI893
aI895
aI897
aI900
aI904
aI910
aI913
aI919
aI325
aI946
aI961
aI973
aI1215
aI982
aI993
atRp656
sS'/Library/Frameworks/Python.framework/Versions/2.7/lib/python2.7/site-packages/botocore/docs/method.py'
p657
g3
((lp658
I128
aI129
aI130
aI131
aI13
aI15
aI16
aI17
aI82
aI21
aI24
aI43
aI108
aI18
aI127
atRp659
sS'/Library/Frameworks/Python.framework/Versions/2.7/lib/python2.7/site-packages/certifi/core.py'
p660
g3
((lp661
I35
aI9
aI10
aI11
aI14
aI18
aI21
aI22
aI24
aI27
atRp662
sS'/Library/Frameworks/Python.framework/Versions/2.7/lib/python2.7/site-packages/s3transfer/compat.py'
p663
g3
((lp664
I13
aI14
aI15
aI16
aI17
aI19
aI22
aI35
aI37
aI81
aI50
aI53
aI54
aI57
atRp665
sS'/Library/Frameworks/Python.framework/Versions/2.7/lib/python2.7/site-packages/cryptography/hazmat/bindings/__init__.py'
p666
g3
((lp667
I5
atRp668
sS'/Library/Frameworks/Python.framework/Versions/2.7/lib/python2.7/urlparse.py'
p669
g3
((lp670
I78
aI79
aI84
aI97
aI98
aI100
aI102
aI105
aI109
aI110
aI117
aI134
aI143
aI144
aI145
aI148
aI149
aI161
aI162
aI163
aI164
aI165
aI166
aI174
aI175
aI176
aI177
aI178
aI179
aI181
aI182
aI183
aI184
aI199
aI200
aI205
aI206
aI208
aI210
aI211
aI212
aI213
aI215
aI217
aI218
aI219
aI220
aI221
aI228
aI229
aI231
aI239
aI240
aI241
aI242
aI243
aI244
aI245
aI246
aI247
aI249
atRp671
sS'/Library/Frameworks/Python.framework/Versions/2.7/lib/python2.7/site-packages/botocore/vendored/requests/packages/urllib3/contrib/pyopenssl.py'
p672
g3
((lp673
I45
aI47
aI48
aI49
aI53
aI54
aI55
aI56
aI57
aI58
aI60
aI61
aI63
aI66
aI69
aI70
aI71
aI74
aI75
aI76
aI77
aI79
aI80
aI81
aI82
aI83
aI86
aI89
aI90
aI93
aI96
aI97
aI100
aI103
aI104
aI108
aI109
aI114
aI115
aI119
aI149
aI154
aI156
aI162
aI165
aI169
aI192
aI195
aI206
aI211
aI217
aI238
aI241
aI248
aI252
aI253
aI254
atRp674
sS'/Library/Frameworks/Python.framework/Versions/2.7/lib/python2.7/site-packages/botocore/vendored/requests/packages/urllib3/packages/six.py'
p675
g3
((lp676
I1
aI22
aI23
aI24
aI26
aI27
aI31
aI33
aI42
aI43
aI44
aI45
aI46
aI48
aI53
aI54
aI55
aI56
aI57
aI63
aI64
aI67
aI69
aI72
aI74
aI75
aI78
aI80
aI81
aI83
aI84
aI85
aI87
aI88
aI91
aI93
aI94
aI95
aI100
aI102
aI106
aI108
aI109
aI110
aI121
aI122
aI123
aI124
aI126
aI127
aI128
aI132
aI133
aI137
aI138
aI139
aI140
aI141
aI142
aI143
aI144
aI145
aI147
aI148
aI149
aI150
aI151
aI152
aI153
aI154
aI155
aI156
aI157
aI158
aI159
aI160
aI161
aI162
aI163
aI164
aI165
aI166
aI167
aI168
aI169
aI170
aI171
aI172
aI173
aI174
aI175
aI176
aI177
aI178
aI179
aI180
aI182
aI183
aI184
aI186
aI189
aI194
aI205
aI216
aI217
aI219
aI220
aI222
aI223
aI224
aI227
aI228
aI232
aI235
aI244
aI247
aI249
aI252
aI253
aI254
aI257
aI258
aI259
aI260
aI263
aI267
aI271
aI276
aI291
aI293
aI295
aI296
aI297
aI298
aI299
aI302
aI317
aI319
aI320
aI321
aI322
aI323
aI324
aI327
aI330
aI332
aI335
aI380
aI383
atRp677
sS'/Library/Frameworks/Python.framework/Versions/2.7/lib/python2.7/site-packages/botocore/vendored/requests/adapters.py'
p678
g3
((lp679
I9
aI11
aI13
aI14
aI15
aI16
aI17
aI18
aI19
aI21
aI22
aI23
aI24
aI25
aI26
aI27
aI28
aI29
aI30
aI31
aI33
aI35
aI36
aI37
aI40
aI41
aI43
aI44
aI46
aI49
aI53
aI78
aI79
aI80
aI82
aI83
aI84
aI85
aI86
aI89
aI90
aI92
aI94
aI95
aI96
aI98
aI100
aI104
aI116
aI129
aI130
aI131
aI133
aI134
aI136
aI159
aI169
aI171
aI174
aI177
aI178
aI180
aI183
aI184
aI189
aI196
aI205
aI208
aI211
aI214
aI215
aI216
aI218
aI219
aI224
aI227
aI228
aI230
aI232
aI240
aI241
aI243
aI249
aI250
aI251
aI253
aI255
aI263
aI276
aI277
aI278
aI280
aI283
aI285
aI287
aI299
aI301
aI323
aI337
aI339
aI340
aI341
aI343
aI345
aI346
aI347
aI348
aI358
aI359
aI360
aI361
aI362
aI363
aI364
aI365
aI366
aI367
aI368
aI369
aI370
aI437
atRp680
sS'/Library/Frameworks/Python.framework/Versions/2.7/lib/python2.7/site-packages/pyasn1/type/__init__.py'
p681
g3
((lp682
I1
atRp683
sS'/Library/Frameworks/Python.framework/Versions/2.7/lib/python2.7/site-packages/pyasn1/error.py'
p684
g3
((lp685
I9
aI10
aI13
aI14
aI17
aI18
atRp686
sS'/Library/Frameworks/Python.framework/Versions/2.7/lib/python2.7/site-packages/botocore/awsrequest.py'
p687
g3
((lp688
I14
aI15
aI16
aI17
aI18
aI19
aI21
aI22
aI24
aI25
aI26
aI27
aI28
aI30
aI32
aI34
aI38
aI41
aI44
aI48
aI57
aI68
aI69
aI70
aI71
aI80
aI81
aI83
aI84
aI86
aI87
aI88
aI90
aI122
aI123
aI124
aI127
aI128
aI129
aI130
aI131
aI132
aI134
aI138
aI139
aI140
aI141
aI143
aI144
aI145
aI147
aI148
aI149
aI150
aI154
aI155
aI156
aI157
aI158
aI179
aI184
aI196
aI233
aI237
aI238
aI242
aI244
aI252
aI253
aI259
aI260
aI261
aI264
aI265
aI282
aI283
aI284
aI285
aI286
aI287
aI293
aI294
aI295
aI299
aI312
aI313
aI314
aI315
aI316
aI319
aI320
aI327
aI330
aI331
aI333
aI336
aI337
aI338
aI341
aI342
aI343
aI344
aI347
aI348
aI349
aI350
aI351
aI352
aI360
aI362
aI365
aI366
aI367
aI368
aI369
aI370
aI371
aI372
aI374
aI376
aI377
aI378
aI379
aI381
aI384
aI399
aI400
aI401
aI402
aI403
aI404
aI406
aI407
aI412
aI415
aI431
aI433
aI438
aI439
aI454
aI455
atRp689
sS'/Library/Frameworks/Python.framework/Versions/2.7/lib/python2.7/site-packages/figleaf-0.6.1-py2.7.egg/figleaf/internals.py'
p690
g3
((lp691
I98
aI99
atRp692
sS'/Library/Frameworks/Python.framework/Versions/2.7/lib/python2.7/site-packages/pyasn1/type/univ.py'
p693
g3
((lp694
I7
aI8
aI9
aI10
aI11
aI12
aI13
aI2062
aI15
aI2064
aI2065
aI18
aI19
aI20
aI21
aI25
aI48
aI50
aI51
aI53
aI57
aI61
aI63
aI64
aI65
aI66
aI69
aI70
aI73
aI2402
aI79
aI82
aI85
aI2135
aI88
aI2063
aI94
aI2143
aI97
aI2147
aI100
aI103
aI106
aI109
aI112
aI115
aI118
aI361
aI121
aI124
aI127
aI130
aI133
aI136
aI139
aI140
aI2192
aI146
aI2204
aI2205
aI2208
aI2209
aI2211
aI166
aI2215
aI169
aI170
aI2219
aI172
aI2223
aI2225
aI178
aI2227
aI181
aI2231
aI184
aI187
aI190
aI2239
aI2243
aI2244
aI197
aI2246
aI200
aI2250
aI203
aI204
aI2254
aI209
aI2258
aI212
aI2262
aI215
aI2265
aI218
aI221
aI224
aI225
aI226
aI227
aI232
aI233
aI234
aI2288
aI2289
aI242
aI2291
aI2292
aI246
aI249
aI287
aI288
aI2338
aI2342
aI2347
aI2348
aI2351
aI2352
aI2356
aI2360
aI2364
aI2365
aI2368
aI2370
aI2372
aI2377
aI2382
aI397
aI2387
aI343
aI344
aI347
aI348
aI2397
aI350
aI354
aI2403
aI358
aI2409
aI2412
aI2417
aI2422
aI2426
aI394
aI2443
aI2444
aI2445
aI2446
aI399
aI403
aI407
aI409
aI411
aI412
aI416
aI417
aI419
aI420
aI421
aI422
aI424
aI754
aI430
aI431
aI432
aI433
aI436
aI438
aI440
aI445
aI446
aI447
aI450
aI451
aI2508
aI2514
aI2524
aI2530
aI16
aI497
aI498
aI2547
aI2564
aI2568
aI2569
aI2572
aI2573
aI2574
aI2578
aI2580
aI91
aI562
aI565
aI569
aI573
aI577
aI581
aI585
aI591
aI594
aI603
aI609
aI614
aI618
aI622
aI630
aI633
aI636
aI639
aI642
aI645
aI646
aI649
aI657
aI665
aI670
aI676
aI684
aI686
aI687
aI692
aI693
aI696
aI697
aI803
aI2169
aI736
aI737
aI750
aI2139
aI756
aI767
aI2392
aI805
aI806
aI808
aI812
aI814
aI815
aI817
aI818
aI819
aI820
aI822
aI823
aI825
aI827
aI828
aI830
aI832
aI833
aI835
aI836
aI884
aI885
aI886
aI928
aI929
aI931
aI932
aI933
aI934
aI935
aI937
aI938
aI939
aI941
aI942
aI943
aI944
aI945
aI948
aI949
aI950
aI951
aI969
aI972
aI981
aI984
aI1029
aI1040
aI175
aI1064
aI1079
aI1101
aI1106
aI1112
aI1115
aI1118
aI1121
aI1124
aI1127
aI1130
aI1133
aI1136
aI1140
aI2238
aI1157
aI1158
aI1162
aI1163
aI1165
aI1166
aI1168
aI1190
aI1220
aI1221
aI1225
aI1228
aI206
aI1248
aI1251
aI1252
aI1254
aI1258
aI1260
aI1263
aI1266
aI1271
aI2260
aI1276
aI1284
aI1287
aI1290
aI1293
aI1296
aI1299
aI1319
aI1320
aI1322
aI1334
aI1335
aI1342
aI1343
aI1347
aI1351
aI1375
aI1376
aI1378
aI1379
aI1380
aI1381
aI1389
aI1390
aI1392
aI1396
aI1398
aI1423
aI1424
aI2290
aI1456
aI1464
aI1504
aI1510
aI1516
aI1528
aI1539
aI1542
aI1545
aI1548
aI1551
aI1554
aI1557
aI1560
aI1563
aI1566
aI1569
aI1572
aI1575
aI1576
aI1579
aI1594
aI1597
aI1598
aI1600
aI1608
aI1611
aI1614
aI1617
aI1624
aI1627
aI1630
aI1631
aI1633
aI1636
aI1639
aI1642
aI1645
aI1648
aI1651
aI1652
aI396
aI1660
aI1667
aI1668
aI1671
aI1672
aI1674
aI1678
aI1682
aI1686
aI1704
aI1708
aI1712
aI1715
aI1718
aI1722
aI1727
aI1730
aI1733
aI1736
aI1746
aI1763
aI1764
aI1765
aI1766
aI1834
aI1838
aI1849
aI1858
aI1859
aI1861
aI1862
aI1864
aI1868
aI1872
aI1876
aI1878
aI1881
aI1882
aI1885
aI1886
aI1888
aI1892
aI1896
aI1900
aI1902
aI1905
aI1923
aI1926
aI1928
aI1929
aI1930
aI1931
aI1932
aI1933
aI1935
aI1937
aI1943
aI1949
aI1952
aI1957
aI1961
aI1964
aI1968
aI1974
aI1978
aI1988
aI2007
aI2008
aI2009
aI2010
aI2040
atRp695
sS'/Library/Frameworks/Python.framework/Versions/2.7/lib/python2.7/site-packages/botocore/vendored/requests/cookies.py'
p696
g3
((lp697
I7
aI9
aI10
aI11
aI12
aI14
aI15
aI17
aI276
aI22
aI285
aI32
aI34
aI35
aI292
aI37
aI39
aI297
aI42
aI45
aI302
aI48
aI94
aI310
aI265
aI62
aI65
aI324
aI71
aI75
aI78
aI79
aI81
aI85
aI343
aI89
aI378
aI350
aI99
aI356
aI101
aI106
aI363
aI108
aI109
aI111
aI115
aI122
aI123
aI126
aI128
aI129
aI132
aI134
aI135
aI136
aI139
aI68
aI155
aI413
aI160
aI157
aI176
aI177
aI440
aI188
aI448
aI449
aI451
aI452
aI453
aI457
aI204
aI210
aI215
aI36
aI221
aI226
aI232
aI239
aI247
aI460
aI255
atRp698
sS'/Library/Frameworks/Python.framework/Versions/2.7/lib/python2.7/site-packages/botocore/vendored/requests/packages/urllib3/filepost.py'
p699
g3
((lp700
I1
aI3
aI4
aI6
aI7
aI8
aI10
aI13
aI20
aI40
aI58
atRp701
sS'/Library/Frameworks/Python.framework/Versions/2.7/lib/python2.7/site-packages/pkg_resources/_vendor/six.py'
p702
g3
((lp703
I185
aI187
atRp704
sS'/Library/Frameworks/Python.framework/Versions/2.7/lib/python2.7/site-packages/botocore/vendored/requests/packages/urllib3/request.py'
p705
g3
((lp706
I1
aI2
aI3
aI4
aI6
aI9
aI74
aI12
aI83
aI84
aI39
aI41
aI43
aI44
aI46
aI47
aI52
atRp707
sS'/Library/Frameworks/Python.framework/Versions/2.7/lib/python2.7/site-packages/botocore/vendored/requests/exceptions.py'
p708
g3
((lp709
I9
aI10
aI13
aI15
aI17
aI30
aI31
aI34
aI35
aI38
aI39
aI42
aI43
aI46
aI52
aI55
aI59
aI62
aI63
aI66
aI67
aI70
aI71
aI74
aI75
aI78
aI79
aI82
aI83
aI86
aI87
aI90
aI91
aI94
aI95
aI98
aI99
atRp710
sS'/Library/Frameworks/Python.framework/Versions/2.7/lib/python2.7/site-packages/boto3/docs/attr.py'
p711
g3
((lp712
I38
aI13
aI15
aI18
aI19
aI23
aI47
atRp713
sS'/Library/Frameworks/Python.framework/Versions/2.7/lib/python2.7/site-packages/pyasn1/type/namedtype.py'
p714
g3
((lp715
I7
aI8
aI9
aI10
aI12
aI15
aI17
aI18
aI19
aI21
aI22
aI23
aI25
aI30
aI33
aI36
aI39
aI42
aI45
aI48
aI51
aI54
aI57
aI65
aI66
aI69
aI70
aI73
aI74
aI75
aI76
aI77
aI78
aI79
aI80
aI81
aI83
aI89
aI92
aI95
aI98
aI101
aI104
aI107
aI110
aI117
aI121
aI124
aI125
aI131
aI132
aI134
aI137
aI143
aI158
aI164
aI175
aI183
aI195
aI203
aI211
aI220
atRp716
sS'/Library/Frameworks/Python.framework/Versions/2.7/lib/python2.7/_abcoll.py'
p717
g3
((lp718
I384
aI130
aI131
aI388
aI389
aI390
aI392
aI387
aI405
aI406
aI25
aI26
aI410
aI133
aI554
aI557
aI558
aI559
aI562
aI563
aI564
aI565
aI566
aI567
aI571
aI572
aI573
aI100
aI103
aI381
aI382
aI383
atRp719
sS'/Library/Frameworks/Python.framework/Versions/2.7/lib/python2.7/site-packages/cryptography/hazmat/backends/interfaces.py'
p720
g3
((lp721
I256
aI5
aI7
aI264
aI9
aI12
aI13
aI14
aI271
aI20
aI277
aI26
aI283
aI289
aI34
aI35
aI295
aI41
aI263
aI301
aI48
aI49
aI50
aI308
aI265
aI57
aI315
aI64
aI65
aI66
aI323
aI324
aI72
aI331
aI79
aI80
aI81
aI338
aI88
aI345
aI351
aI96
aI97
aI98
aI357
aI105
aI363
aI364
aI111
aI369
aI118
aI377
aI378
aI379
aI124
aI131
aI132
aI133
aI139
aI322
aI146
aI152
aI158
aI164
aI170
aI176
aI183
aI184
aI185
aI194
aI33
aI200
aI206
aI212
aI218
aI224
aI231
aI232
aI233
aI240
aI247
aI248
aI249
atRp722
sS'/Library/Frameworks/Python.framework/Versions/2.7/lib/python2.7/site-packages/botocore/vendored/requests/packages/urllib3/util/retry.py'
p723
g3
((lp724
I128
aI129
aI2
aI131
aI4
aI1
aI11
aI14
aI144
aI145
aI278
aI285
aI158
aI169
aI180
aI186
aI192
aI195
aI198
aI200
aI209
aI17
aI104
aI106
aI107
aI110
aI112
aI113
aI114
aI116
aI117
aI118
aI120
aI124
aI125
aI126
aI127
atRp725
sS'/Library/Frameworks/Python.framework/Versions/2.7/lib/python2.7/Queue.py'
p726
g3
((lp727
I1
aI3
aI4
aI5
aI8
aI9
aI11
aI13
aI14
aI15
aI17
aI18
aI19
aI21
aI25
aI26
aI27
aI28
aI33
aI36
aI39
aI42
aI43
aI45
aI70
aI86
aI93
aI100
aI107
aI118
aI119
aI120
aI121
aI122
aI124
aI125
aI136
aI137
aI138
aI140
aI142
aI150
aI161
aI162
aI163
aI164
aI178
aI179
aI180
aI182
aI184
aI197
aI200
aI204
aI208
aI212
aI216
aI218
aI221
aI224
aI227
aI231
aI232
aI234
aI235
aI237
aI238
aI240
aI241
aI243
aI244
atRp728
sS'/Library/Frameworks/Python.framework/Versions/2.7/lib/python2.7/site-packages/s3transfer/bandwidth.py'
p729
g3
((lp730
I266
aI13
aI270
aI17
aI18
aI276
aI283
aI288
aI289
aI294
aI40
aI41
aI42
aI45
aI46
aI303
aI54
aI63
aI64
aI130
aI329
aI79
aI14
aI342
aI100
aI102
aI358
aI369
aI386
aI134
aI138
aI403
aI413
aI158
aI175
aI179
aI183
aI186
aI189
aI199
aI202
aI206
aI207
aI208
aI237
aI341
atRp731
sS'/Library/Frameworks/Python.framework/Versions/2.7/lib/python2.7/site-packages/jmespath/compat.py'
p732
g3
((lp733
I1
aI2
aI4
aI6
aI7
aI8
aI9
aI11
aI15
aI16
aI18
aI19
aI21
aI27
aI28
aI33
aI34
aI36
aI37
aI38
aI39
atRp734
sS'/Library/Frameworks/Python.framework/Versions/2.7/lib/python2.7/site-packages/pyasn1/type/tag.py'
p735
g3
((lp736
I7
aI8
aI10
aI11
aI12
aI13
aI15
aI16
aI17
aI18
aI20
aI21
aI23
aI24
aI25
aI28
aI29
aI31
aI32
aI36
aI37
aI38
aI40
aI43
aI50
aI53
aI56
aI59
aI62
aI65
aI68
aI69
aI71
aI72
aI74
aI80
aI88
aI92
aI93
aI94
aI95
aI96
aI97
aI98
aI99
aI100
aI101
aI103
aI106
aI112
aI113
aI114
aI117
aI122
aI123
aI124
aI128
aI129
aI130
aI132
aI133
aI134
aI135
aI136
aI138
aI141
aI142
aI143
aI144
aI148
aI151
aI154
aI157
aI160
aI163
aI166
aI167
aI169
aI172
aI183
aI184
atRp737
sS'/Library/Frameworks/Python.framework/Versions/2.7/lib/python2.7/site-packages/botocore/docs/waiter.py'
p738
g3
((lp739
I67
aI40
aI13
aI14
aI15
aI16
aI17
aI20
aI21
aI26
atRp740
sS'/Library/Frameworks/Python.framework/Versions/2.7/lib/python2.7/site-packages/simplejson/decoder.py'
p741
g3
((lp742
I2
aI3
aI4
aI5
aI6
aI7
aI8
aI307
aI10
aI11
aI12
aI13
aI16
aI20
aI22
aI24
aI25
aI33
aI34
aI35
aI37
aI39
aI40
aI41
aI42
aI45
aI46
aI47
aI304
aI306
aI51
aI308
aI53
aI54
aI55
aI352
aI353
aI354
aI355
aI356
aI357
aI358
aI359
aI360
aI361
aI362
aI363
aI364
aI365
aI367
aI276
aI380
aI141
aI143
aI144
aI147
aI148
aI48
aI240
atRp743
sS'/Library/Frameworks/Python.framework/Versions/2.7/lib/python2.7/locale.py'
p744
g3
((lp745
I384
aI385
aI388
aI391
aI392
aI393
aI395
aI396
aI399
aI400
aI401
aI402
aI403
aI404
aI405
aI407
aI408
aI409
aI412
aI423
aI425
aI426
aI428
aI429
aI431
aI432
aI350
aI351
aI355
aI357
aI358
aI360
aI361
aI363
aI382
atRp746
sS'/Library/Frameworks/Python.framework/Versions/2.7/lib/python2.7/site-packages/boto3/resources/base.py'
p747
g3
((lp748
I64
aI131
aI70
aI72
aI14
aI16
aI19
aI22
aI88
aI25
aI26
aI27
aI144
aI44
aI48
aI55
aI121
atRp749
sS'/Library/Frameworks/Python.framework/Versions/2.7/lib/python2.7/site-packages/botocore/config.py'
p750
g3
((lp751
I13
aI14
aI16
aI17
aI18
aI19
aI22
aI105
aI106
aI107
aI108
aI109
aI110
aI111
aI112
aI113
aI114
aI115
aI116
aI117
aI120
aI121
aI122
aI125
aI126
aI129
aI130
aI133
aI135
aI137
aI138
aI139
aI143
aI144
aI145
aI153
aI160
aI168
aI170
aI171
aI177
aI178
aI188
atRp752
sS'/Library/Frameworks/Python.framework/Versions/2.7/lib/python2.7/mimetypes.py'
p753
g3
((lp754
I24
aI26
aI27
aI28
aI29
aI30
aI31
aI32
aI33
aI36
aI37
aI41
aI42
aI43
aI44
aI45
aI46
aI47
aI48
aI49
aI52
aI53
aI56
aI62
aI64
aI78
aI95
aI157
aI176
aI194
aI205
aI228
aI274
aI297
aI314
aI330
aI347
aI367
aI378
aI384
aI385
aI386
aI387
aI388
aI389
aI390
aI393
aI394
aI395
aI396
aI397
aI405
aI406
aI407
aI408
aI409
aI410
aI411
aI412
aI413
aI414
aI415
aI416
aI417
aI419
aI420
aI421
aI422
aI423
aI424
aI425
aI426
aI427
aI428
aI429
aI430
aI431
aI432
aI433
aI434
aI435
aI436
aI437
aI438
aI439
aI440
aI441
aI442
aI443
aI444
aI445
aI446
aI447
aI448
aI449
aI450
aI451
aI452
aI453
aI454
aI455
aI456
aI457
aI458
aI459
aI460
aI461
aI462
aI463
aI464
aI465
aI466
aI467
aI468
aI469
aI470
aI471
aI472
aI473
aI474
aI475
aI476
aI477
aI478
aI479
aI480
aI481
aI482
aI483
aI484
aI485
aI486
aI487
aI488
aI489
aI490
aI491
aI492
aI493
aI494
aI495
aI496
aI497
aI498
aI499
aI500
aI501
aI502
aI503
aI504
aI505
aI506
aI507
aI508
aI509
aI510
aI511
aI512
aI513
aI514
aI515
aI516
aI517
aI518
aI519
aI520
aI521
aI522
aI523
aI524
aI525
aI527
aI528
aI529
aI530
aI531
aI532
aI533
aI534
aI541
aI542
aI543
aI544
aI545
aI546
aI547
aI548
aI549
aI553
aI556
atRp755
sS'/Library/Frameworks/Python.framework/Versions/2.7/lib/python2.7/site-packages/boto3/docs/action.py'
p756
g3
((lp757
I69
aI13
aI14
aI15
aI16
aI17
aI19
aI20
aI21
aI22
aI23
aI26
aI27
aI111
atRp758
sS'/Library/Frameworks/Python.framework/Versions/2.7/lib/python2.7/site-packages/jmespath/__init__.py'
p759
g3
((lp760
I1
aI2
aI4
aI7
aI11
atRp761
sS'/Library/Frameworks/Python.framework/Versions/2.7/lib/python2.7/site-packages/jmespath/visitor.py'
p762
g3
((lp763
I1
aI3
aI261
aI6
aI265
aI266
aI13
aI271
aI279
aI36
aI37
aI38
aI50
aI51
aI55
aI56
aI59
aI68
aI72
aI73
aI74
aI75
aI76
aI77
aI78
aI79
aI80
aI82
aI84
aI96
aI99
aI105
aI111
aI118
aI121
aI124
aI131
aI144
aI157
aI160
aI170
aI176
aI182
aI185
aI188
aI196
aI204
aI210
aI216
aI224
aI230
aI241
aI254
atRp764
sS'/Library/Frameworks/Python.framework/Versions/2.7/lib/python2.7/ctypes/macholib/framework.py'
p765
g3
((lp766
I64
aI3
aI5
aI7
aI9
aI17
aI19
aI39
aI40
aI41
aI42
aI44
atRp767
sS'/Library/Frameworks/Python.framework/Versions/2.7/lib/python2.7/site-packages/boto3/s3/__init__.py'
p768
g3
((lp769
I1
atRp770
sS'/Library/Frameworks/Python.framework/Versions/2.7/lib/python2.7/site-packages/cryptography/hazmat/primitives/asymmetric/__init__.py'
p771
g3
((lp772
I5
aI7
aI9
aI12
aI13
aI14
aI20
aI27
aI28
aI29
aI35
atRp773
sS'/Library/Frameworks/Python.framework/Versions/2.7/lib/python2.7/site-packages/boto3/resources/model.py'
p774
g3
((lp775
I261
aI24
aI26
aI28
aI31
aI545
aI34
aI40
aI41
aI47
aI57
aI58
aI576
aI585
aI76
aI338
aI84
aI85
aI88
aI609
aI103
aI370
aI115
aI116
aI134
aI391
aI140
aI141
aI148
aI156
aI157
aI159
aI420
aI169
aI177
aI178
aI594
aI438
aI188
aI452
aI203
aI467
aI214
aI224
aI225
aI482
aI237
aI250
aI251
atRp776
sS'/Library/Frameworks/Python.framework/Versions/2.7/lib/python2.7/encodings/__init__.py'
p777
g3
((lp778
I140
aI144
aI145
aI146
aI147
aI154
aI64
aI69
aI74
aI75
aI85
aI86
aI87
aI88
aI92
aI93
aI94
aI96
aI99
aI100
aI104
aI108
aI109
aI114
aI120
aI121
atRp779
sS'/Library/Frameworks/Python.framework/Versions/2.7/lib/python2.7/_MozillaCookieJar.py'
p780
g3
((lp781
I1
aI3
aI5
aI38
aI39
aI8
aI45
aI47
aI113
atRp782
sS'/Library/Frameworks/Python.framework/Versions/2.7/lib/python2.7/site-packages/packaging/__init__.py'
p783
g3
((lp784
I4
aI6
aI12
aI13
atRp785
sS'/Library/Frameworks/Python.framework/Versions/2.7/lib/python2.7/platform.py'
p786
g3
((lp787
I1284
aI1367
aI1368
aI1371
aI1372
aI1373
aI1376
aI1137
aI1134
aI1136
aI1393
aI1139
aI1470
aI1142
aI1143
aI1147
aI1406
aI1418
aI1419
aI1424
aI1425
aI1426
aI1428
aI1429
aI1431
aI1433
aI1439
aI1440
aI1445
aI1446
aI1447
aI1460
aI1214
aI959
aI962
aI963
aI966
aI967
aI968
aI971
aI1230
aI1232
aI1235
aI1237
aI1239
aI1241
aI1243
aI1245
aI1249
aI1253
aI1254
aI1265
atRp788
sS'/Library/Frameworks/Python.framework/Versions/2.7/lib/python2.7/site-packages/botocore/exceptions.py'
p789
g3
((lp790
I14
aI15
aI18
aI23
aI24
aI26
aI27
aI28
aI29
aI32
aI37
aI38
aI41
aI46
aI48
aI52
aI59
aI60
aI63
aI65
aI68
aI70
aI73
aI79
aI82
aI83
aI86
aI92
aI93
aI96
aI104
aI105
aI108
aI113
aI114
aI117
aI123
aI124
aI127
aI134
aI137
aI138
aI139
aI142
aI148
aI150
aI154
aI160
aI161
aI164
aI169
aI170
aI173
aI178
aI179
aI182
aI192
aI193
aI197
aI207
aI208
aI212
aI213
aI219
aI226
aI227
aI231
aI239
aI240
aI244
aI251
aI253
aI258
aI265
aI267
aI272
aI277
aI278
aI281
aI282
aI285
aI286
aI289
aI292
aI293
aI298
aI301
aI302
aI306
aI307
aI308
aI310
aI315
aI316
aI317
aI321
aI322
aI323
aI326
aI327
aI328
aI331
aI332
aI333
aI336
aI337
aI338
aI341
aI342
aI343
aI346
aI348
aI351
aI364
aI375
aI376
aI379
aI380
aI381
aI384
aI385
aI388
aI389
aI391
aI399
aI400
aI402
aI407
aI408
aI410
aI415
aI416
aI418
aI422
aI423
aI426
aI427
aI429
aI430
aI432
aI433
aI436
aI438
aI444
aI445
aI448
aI449
aI452
aI453
atRp791
sS'/Library/Frameworks/Python.framework/Versions/2.7/lib/python2.7/site-packages/cryptography/hazmat/primitives/__init__.py'
p792
g3
((lp793
I5
atRp794
sS'/Library/Frameworks/Python.framework/Versions/2.7/lib/python2.7/site-packages/pyasn1/type/useful.py'
p795
g3
((lp796
I7
aI9
aI11
aI12
aI15
aI16
aI19
aI20
aI24
aI25
aI28
aI29
aI33
aI34
aI37
aI38
atRp797
sS'/Library/Frameworks/Python.framework/Versions/2.7/lib/python2.7/site-packages/botocore/utils.py'
p798
g3
((lp799
I1024
aI1026
aI13
aI14
aI15
aI16
aI17
aI18
aI19
aI20
aI21
aI22
aI1048
aI25
aI27
aI28
aI29
aI30
aI31
aI32
aI33
aI36
aI37
aI39
aI1065
aI43
aI44
aI45
aI46
aI49
aI50
aI51
aI54
aI1081
aI63
aI64
aI69
aI74
aI75
aI76
aI77
aI78
aI79
aI80
aI81
aI84
aI1038
aI90
aI117
aI128
aI24
aI161
aI162
aI163
aI164
aI165
aI166
aI167
aI168
aI169
aI170
aI171
aI173
aI1053
aI189
aI233
aI241
aI242
aI243
aI244
aI246
aI262
aI271
aI286
aI322
aI335
aI338
aI340
aI343
aI355
aI359
aI360
aI361
aI362
aI363
aI367
aI372
aI417
aI438
aI1100
aI465
aI498
aI515
aI521
aI523
aI524
aI526
aI527
aI530
aI531
aI532
aI535
aI560
aI561
aI564
aI577
aI603
aI612
aI622
aI631
aI641
aI642
aI643
aI645
aI647
aI649
aI650
aI651
aI652
aI655
aI666
aI668
aI669
aI672
aI675
aI676
aI678
aI682
aI692
aI694
aI695
aI696
aI704
aI716
aI721
aI728
aI729
aI730
aI733
aI734
aI736
aI737
aI738
aI741
aI742
aI743
aI744
aI747
aI748
aI749
aI750
aI754
aI755
aI756
aI757
aI758
aI759
aI760
aI761
aI766
aI767
aI770
aI785
aI787
aI789
aI790
aI793
aI794
aI795
aI796
aI797
aI798
aI799
aI802
aI821
aI829
aI835
aI854
aI872
aI873
aI874
aI875
aI876
aI877
aI881
aI883
aI884
aI885
aI886
aI887
aI888
aI890
aI897
aI902
aI907
aI908
aI915
aI919
aI922
aI923
aI924
aI925
aI961
aI994
aI995
aI996
aI999
aI1004
aI1005
aI1006
aI1009
aI1012
aI1014
aI1015
aI1016
aI1017
aI1018
aI1020
aI1021
aI1022
aI1023
atRp800
sS'/Library/Frameworks/Python.framework/Versions/2.7/lib/python2.7/site-packages/cryptography/__about__.py'
p801
g3
((lp802
I5
aI8
aI9
aI12
aI13
aI15
aI17
aI19
aI20
aI22
aI23
atRp803
sS'/Library/Frameworks/Python.framework/Versions/2.7/lib/python2.7/site-packages/ndg/httpsclient/__init__.py'
p804
g3
((lp805
I3
aI4
aI5
aI6
aI7
aI8
aI9
atRp806
sS'/Library/Frameworks/Python.framework/Versions/2.7/lib/python2.7/site-packages/botocore/vendored/requests/packages/urllib3/response.py'
p807
g3
((lp808
I1
aI2
aI3
aI4
aI5
aI6
aI7
aI9
aI10
aI13
aI14
aI15
aI18
aI20
aI25
aI28
aI47
aI49
aI52
aI55
aI61
aI68
aI92
aI94
aI95
aI97
aI98
aI99
aI101
aI102
aI105
aI106
aI107
aI108
aI109
aI111
aI112
aI113
aI114
aI115
aI117
aI120
aI121
aI123
aI124
aI127
aI128
aI129
aI131
aI132
aI133
aI136
aI139
aI152
aI153
aI156
aI157
aI159
aI168
aI176
aI182
aI183
aI186
aI190
aI191
aI199
aI203
aI205
aI226
aI227
aI230
aI233
aI235
aI236
aI237
aI242
aI243
aI244
aI252
aI253
aI273
aI275
aI277
aI280
aI283
aI284
aI286
aI302
aI303
aI304
aI306
aI307
aI309
aI312
aI321
aI322
aI323
aI326
aI329
aI330
aI331
aI332
aI333
aI334
aI335
aI336
aI337
aI338
aI341
aI344
aI348
aI352
aI354
aI356
aI358
aI359
aI363
aI372
aI376
aI380
aI389
aI392
aI394
aI395
aI396
aI397
aI403
aI404
aI405
aI410
aI414
aI420
aI421
aI422
aI423
aI425
aI434
aI436
aI440
aI446
aI447
aI448
aI449
aI450
aI451
aI452
aI455
aI456
aI457
aI460
aI461
aI464
aI465
aI466
atRp809
sS'/Library/Frameworks/Python.framework/Versions/2.7/lib/python2.7/urllib.py'
p810
g3
((lp811
I1283
aI1287
aI1288
aI1289
aI1290
aI1291
aI1292
aI1293
aI1294
aI1295
aI1296
aI1297
aI1055
aI1318
aI1324
aI1327
aI1337
aI1338
aI1345
aI1368
aI1383
aI1384
aI1385
aI1386
aI1136
aI1393
aI1138
aI1140
aI1397
aI1398
aI1145
aI1405
aI1222
aI1137
aI1449
aI1450
aI1451
aI1453
aI1455
aI1456
aI1457
aI1458
aI1459
aI1460
aI1462
aI1465
aI1469
aI1471
aI1473
aI1475
aI1476
aI1477
aI1478
aI1479
aI1480
aI1484
aI1485
aI1486
aI1233
aI1490
aI1491
aI1493
aI1496
aI1499
aI1141
aI1507
aI1515
aI1516
aI1519
aI1522
atRp812
sS'/Library/Frameworks/Python.framework/Versions/2.7/lib/python2.7/site-packages/pyasn1/debug.py'
p813
g3
((lp814
I130
aI7
aI8
aI9
aI10
aI12
aI14
aI15
aI16
aI17
aI19
aI20
aI21
aI22
aI26
aI28
aI41
aI44
aI48
aI49
aI57
aI58
aI60
aI89
aI92
aI95
aI98
aI102
aI105
aI110
aI117
aI118
aI119
aI121
aI123
aI126
atRp815
sS'/Library/Frameworks/Python.framework/Versions/2.7/lib/python2.7/site-packages/jmespath/lexer.py'
p816
g3
((lp817
I1
aI2
aI3
aI5
aI8
aI9
aI10
aI11
aI12
aI13
aI14
aI15
aI16
aI17
aI18
aI19
aI148
aI21
aI22
aI23
aI24
aI27
aI161
aI168
aI90
aI99
aI107
aI20
aI127
atRp818
sS'/Library/Frameworks/Python.framework/Versions/2.7/lib/python2.7/_weakrefset.py'
p819
g3
((lp820
I18
aI21
aI22
aI23
aI24
aI27
aI28
aI29
aI30
aI31
aI32
aI37
aI38
aI45
aI47
aI48
aI49
aI53
aI54
aI55
aI59
aI60
aI61
aI62
aI65
aI71
aI72
aI75
aI84
aI86
atRp821
sS'/Library/Frameworks/Python.framework/Versions/2.7/lib/python2.7/site-packages/ndg/httpsclient/subj_alt_name.py'
p822
g3
((lp823
I7
aI8
aI9
aI10
aI11
aI12
aI13
aI14
aI15
aI28
aI31
aI32
aI33
aI34
aI35
aI36
aI37
aI38
aI39
aI40
aI41
aI42
aI43
aI44
aI45
aI46
aI47
aI48
aI49
aI50
aI51
aI55
aI56
aI59
aI60
aI63
aI64
aI65
aI66
aI67
aI71
aI72
aI73
aI75
aI76
aI77
aI80
aI81
aI82
aI83
aI87
aI88
aI89
aI90
aI91
aI92
aI96
aI97
aI98
aI99
aI102
aI103
aI104
aI105
aI106
aI107
aI111
aI112
aI113
aI114
aI115
aI116
aI117
aI118
aI119
aI120
aI121
aI122
aI126
aI127
aI128
aI132
aI133
aI134
aI135
aI136
aI137
aI138
aI139
aI140
aI144
aI145
aI146
aI147
aI150
aI151
atRp824
sS'/Library/Frameworks/Python.framework/Versions/2.7/lib/python2.7/site-packages/botocore/vendored/requests/packages/urllib3/_collections.py'
p825
g3
((lp826
I1
aI2
aI3
aI13
aI14
aI17
aI20
aI23
aI26
aI38
aI40
aI42
aI43
aI44
aI46
aI47
aI49
aI51
aI52
aI53
aI54
aI56
aI57
aI58
aI60
aI61
aI65
aI68
aI71
aI78
aI82
aI85
aI95
aI100
aI101
aI102
aI103
aI104
aI107
aI139
aI141
aI142
aI143
aI144
aI147
aI148
aI151
aI154
aI155
aI156
aI158
aI161
aI164
aI171
aI174
aI175
aI176
aI178
aI179
aI180
aI182
aI184
aI201
aI207
aI216
aI217
aI219
aI220
aI230
aI235
aI238
aI240
aI243
aI246
aI250
aI251
aI253
aI256
aI270
aI271
aI272
aI274
aI277
aI285
aI290
aI297
aI303
aI306
aI312
aI314
aI315
aI320
aI321
aI323
atRp827
sS'/Library/Frameworks/Python.framework/Versions/2.7/lib/python2.7/site-packages/botocore/handlers.py'
p828
g3
((lp829
I17
aI19
aI20
aI21
aI22
aI23
aI24
aI25
aI27
aI29
aI30
aI31
aI32
aI33
aI34
aI35
aI36
aI37
aI38
aI39
aI41
aI42
aI43
aI44
aI45
aI48
aI50
aI51
aI57
aI58
aI60
aI61
aI65
aI66
aI69
aI97
aI109
aI117
aI121
aI122
aI142
aI155
aI156
aI163
aI171
aI181
aI182
aI183
aI184
aI185
aI186
aI189
aI190
aI193
aI194
aI195
aI198
aI207
aI213
aI214
aI215
aI216
aI217
aI224
aI234
aI244
aI260
aI273
aI294
aI302
aI316
aI324
aI325
aI326
aI327
aI328
aI329
aI336
aI365
aI392
aI406
aI415
aI436
aI443
aI457
aI479
aI491
aI510
aI529
aI538
aI539
aI542
aI543
aI546
aI578
aI599
aI608
aI614
aI620
aI652
aI665
aI666
aI669
aI683
aI687
aI705
aI714
aI722
aI746
aI754
aI760
aI761
aI762
aI763
aI766
aI767
aI768
aI775
aI776
aI777
aI780
aI781
aI782
aI783
aI786
aI787
aI788
aI789
aI791
aI807
aI827
aI835
aI836
aI842
aI844
aI852
aI853
aI854
aI855
aI856
aI857
aI858
aI859
aI860
aI861
aI862
aI863
aI865
aI866
aI867
aI869
aI871
aI873
aI874
aI875
aI876
aI877
aI878
aI879
aI880
aI881
aI882
aI883
aI884
aI885
aI886
aI887
aI888
aI889
aI890
aI892
aI893
aI894
aI895
aI896
aI897
aI898
aI899
aI900
aI901
aI903
aI904
aI905
aI906
aI907
aI908
aI909
aI910
aI911
aI912
aI913
aI914
aI915
aI916
aI917
aI918
aI919
aI920
aI921
aI922
aI923
aI924
aI925
aI926
aI927
aI928
aI929
aI930
aI931
aI932
aI933
aI934
aI935
aI936
aI937
aI938
aI939
aI940
aI941
aI942
aI943
aI944
aI945
aI948
aI949
aI951
aI952
aI955
aI956
aI957
aI958
aI959
aI960
aI962
aI963
aI966
aI967
aI968
aI969
aI972
aI973
aI974
aI975
aI976
aI977
aI978
aI979
aI982
aI983
aI984
aI985
aI987
aI988
aI990
aI991
aI992
aI994
aI995
aI997
aI998
aI999
aI1000
aI1001
aI1002
aI1003
aI1004
aI1006
atRp830
sS'/Library/Frameworks/Python.framework/Versions/2.7/lib/python2.7/httplib.py'
p831
g3
((lp832
I67
aI69
aI70
aI71
aI72
aI73
aI74
aI75
aI76
aI77
aI80
aI82
aI83
aI87
aI88
aI89
aI90
aI91
aI92
aI94
aI95
aI97
aI100
aI101
aI102
aI106
aI107
aI108
aI111
aI112
aI113
aI114
aI115
aI116
aI117
aI118
aI119
aI122
aI123
aI124
aI125
aI126
aI127
aI128
aI131
aI132
aI133
aI134
aI135
aI136
aI137
aI138
aI139
aI140
aI141
aI142
aI143
aI144
aI145
aI146
aI147
aI148
aI149
aI150
aI151
aI152
aI155
aI156
aI157
aI158
aI159
aI160
aI161
aI162
aI165
aI166
aI167
aI169
aI170
aI171
aI172
aI173
aI174
aI175
aI177
aI178
aI179
aI180
aI181
aI182
aI183
aI184
aI186
aI187
aI188
aI189
aI190
aI191
aI192
aI193
aI194
aI195
aI196
aI197
aI198
aI199
aI200
aI201
aI202
aI203
aI205
aI206
aI207
aI208
aI209
aI210
aI214
aI217
aI220
aI247
aI248
aI252
aI255
aI257
aI259
aI260
aI261
aI266
aI271
aI298
aI299
aI300
aI301
aI302
aI303
aI304
aI305
aI307
aI308
aI310
aI316
aI317
aI319
aI323
aI326
aI327
aI334
aI337
aI339
aI340
aI341
aI343
aI344
aI354
aI364
aI365
aI368
aI376
aI377
aI378
aI380
aI383
aI384
aI385
aI387
aI388
aI389
aI390
aI392
aI394
aI395
aI397
aI399
aI403
aI404
aI413
aI423
aI424
aI425
aI429
aI431
aI432
aI437
aI438
aI439
aI440
aI452
aI453
aI454
aI456
aI457
aI463
aI470
aI471
aI476
aI479
aI480
aI481
aI482
aI484
aI487
aI491
aI492
aI493
aI494
aI498
aI501
aI504
aI505
aI506
aI512
aI513
aI514
aI517
aI518
aI519
aI522
aI523
aI525
aI547
aI548
aI549
aI550
aI551
aI553
aI560
aI564
aI565
aI568
aI572
aI575
aI589
aI590
aI592
aI597
aI598
aI602
aI603
aI604
aI605
aI607
aI609
aI667
aI686
aI687
aI688
aI689
aI691
aI692
aI693
aI695
aI698
aI703
aI710
aI712
aI713
aI715
aI716
aI717
aI718
aI719
aI721
aI722
aI723
aI724
aI725
aI726
aI727
aI728
aI729
aI730
aI731
aI732
aI733
aI734
aI736
aI740
aI742
aI766
aI767
aI783
aI785
aI788
aI818
aI826
aI828
aI829
aI830
aI831
aI832
aI833
aI835
aI836
aI837
aI838
aI840
aI842
aI848
aI850
aI851
aI858
aI860
aI865
aI867
aI888
aI899
aI900
aI921
aI922
aI927
aI928
aI930
aI932
aI934
aI937
aI952
aI953
aI956
aI963
aI967
aI968
aI970
aI971
aI975
aI977
aI978
aI990
aI991
aI1003
aI1005
aI1010
aI1013
aI1014
aI1017
aI1018
aI1019
aI1022
aI1023
aI1025
aI1034
aI1035
aI1038
aI1040
aI1042
aI1044
aI1049
aI1050
aI1052
aI1064
aI1067
aI1069
aI1070
aI1071
aI1073
aI1076
aI1078
aI1079
aI1080
aI1081
aI1082
aI1084
aI1088
aI1107
aI1110
aI1111
aI1112
aI1114
aI1117
aI1118
aI1120
aI1121
aI1122
aI1123
aI1125
aI1130
aI1132
aI1138
aI1139
aI1141
aI1142
aI1144
aI1146
aI1148
aI1160
aI1175
aI1182
aI1186
aI1219
aI1229
aI1230
aI1234
aI1235
aI1237
aI1239
aI1240
aI1241
aI1252
aI1265
aI1267
aI1273
aI1275
aI1277
aI1278
aI1294
aI1301
aI1304
aI1306
aI1307
aI1309
aI1310
aI1312
aI1313
aI1317
aI1318
aI1320
aI1321
aI1323
aI1324
aI1328
aI1334
aI1337
aI1338
aI1340
aI1341
aI1343
aI1344
aI1346
aI1347
aI1349
aI1350
aI1356
aI1357
aI1362
aI1364
aI1365
aI1372
aI1379
aI1382
aI1391
aI1413
aI1421
atRp833
sS'/Library/Frameworks/Python.framework/Versions/2.7/lib/python2.7/site-packages/botocore/vendored/requests/packages/urllib3/connectionpool.py'
p834
g3
((lp835
I1
aI2
aI3
aI4
aI6
aI7
aI9
aI10
aI11
aI12
aI13
aI16
aI29
aI30
aI31
aI37
aI38
aI40
aI41
aI42
aI43
aI46
aI48
aI50
aI54
aI58
aI60
aI61
aI63
aI64
aI68
aI69
aI71
aI75
aI78
aI83
aI91
aI94
aI152
aI154
aI155
aI157
aI158
aI159
aI160
aI162
aI163
aI165
aI167
aI168
aI170
aI171
aI173
aI174
aI176
aI177
aI179
aI180
aI183
aI184
aI187
aI188
aI189
aI191
aI197
aI210
aI222
aI223
aI224
aI237
aI238
aI239
aI240
aI246
aI248
aI262
aI263
aI264
aI278
aI282
aI284
aI288
aI290
aI293
aI294
aI300
aI317
aI333
aI335
aI336
aI337
aI340
aI341
aI349
aI352
aI355
aI361
aI364
aI367
aI370
aI371
aI372
aI380
aI381
aI382
aI383
aI384
aI386
aI402
aI421
aI422
aI423
aI504
aI507
aI510
aI511
aI514
aI517
aI522
aI528
aI530
aI532
aI533
aI535
aI537
aI538
aI542
aI543
aI544
aI550
aI553
aI554
aI555
aI556
aI604
aI610
aI620
aI621
aI640
aI650
aI653
aI669
aI671
aI672
aI674
aI675
aI676
aI677
aI678
aI679
aI680
aI683
aI684
aI685
aI686
aI687
aI688
aI689
aI690
aI691
aI692
aI694
aI700
aI701
aI702
aI703
aI704
aI705
aI706
aI707
aI709
aI711
aI729
aI733
aI734
aI735
aI737
aI741
aI742
aI743
aI747
aI748
aI749
aI751
aI753
aI757
aI760
aI761
aI763
aI771
atRp836
sS'/Library/Frameworks/Python.framework/Versions/2.7/lib/python2.7/site-packages/boto3/resources/response.py'
p837
g3
((lp838
I128
aI267
aI138
aI139
aI14
aI79
aI17
aI20
aI142
aI15
aI158
aI32
aI182
aI184
aI191
atRp839
sS'/Library/Frameworks/Python.framework/Versions/2.7/lib/python2.7/site-packages/OpenSSL/SSL.py'
p840
g3
((lp841
I1
aI2
aI3
aI4
aI5
aI1030
aI8
aI9
aI10
aI12
aI23
aI26
aI27
aI1053
aI32
aI33
aI6
aI38
aI39
aI40
aI41
aI42
aI43
aI1068
aI45
aI46
aI1071
aI48
aI49
aI1074
aI51
aI1076
aI53
aI55
aI56
aI57
aI59
aI60
aI62
aI64
aI65
aI66
aI67
aI68
aI70
aI72
aI73
aI74
aI75
aI76
aI77
aI78
aI79
aI80
aI81
aI82
aI83
aI85
aI87
aI89
aI90
aI91
aI93
aI95
aI96
aI97
aI98
aI100
aI1125
aI102
aI103
aI104
aI105
aI106
aI107
aI109
aI110
aI111
aI112
aI1137
aI118
aI119
aI120
aI121
aI122
aI123
aI124
aI125
aI126
aI127
aI128
aI129
aI130
aI133
aI136
aI139
aI140
aI143
aI144
aI147
aI148
aI151
aI1176
aI155
aI156
aI1182
aI159
aI160
aI163
aI1195
aI173
aI175
aI178
aI1211
aI191
aI195
aI197
aI1226
aI1234
aI229
aI232
aI234
aI1260
aI1290
aI270
aI273
aI275
aI1306
aI1308
aI1073
aI50
aI52
aI319
aI322
aI324
aI1349
aI1932
aI1367
aI1388
aI370
aI1258
aI1406
aI389
aI1418
aI398
aI1428
aI408
aI409
aI1438
aI415
aI417
aI420
aI421
aI1447
aI425
aI426
aI430
aI431
aI1457
aI435
aI436
aI439
aI443
aI444
aI445
aI446
aI447
aI448
aI449
aI450
aI452
aI453
aI454
aI455
aI1481
aI1493
aI1509
aI499
aI1622
aI1550
aI527
aI534
aI1560
aI1568
aI552
aI1577
aI561
aI1586
aI1598
aI578
aI1607
aI598
aI101
aI612
aI1638
aI1469
aI629
aI1654
aI636
aI1662
aI1675
aI657
aI671
aI1704
aI1713
aI457
aI696
aI1722
aI1731
aI716
aI1746
aI729
aI735
aI1760
aI756
aI768
aI1794
aI776
aI1804
aI784
aI1814
aI804
aI1829
aI816
aI1843
aI1858
aI835
aI1870
aI1881
aI1893
aI870
aI888
aI1916
aI900
aI908
aI1936
aI152
aI922
aI930
aI939
aI1523
aI954
aI1695
aI966
aI978
aI997
aI680
aI1014
atRp842
sS'/Library/Frameworks/Python.framework/Versions/2.7/lib/python2.7/site-packages/pyasn1/__init__.py'
p843
g3
((lp844
I1
aI4
aI6
atRp845
sS'/Library/Frameworks/Python.framework/Versions/2.7/lib/python2.7/site-packages/pyasn1/codec/cer/decoder.py'
p846
g3
((lp847
I7
aI8
aI9
aI10
aI12
aI15
aI16
aI81
aI18
aI36
aI37
aI38
aI40
aI41
aI42
aI43
aI44
aI45
aI48
aI51
aI52
atRp848
sS'/Library/Frameworks/Python.framework/Versions/2.7/lib/python2.7/site-packages/OpenSSL/_util.py'
p849
g3
((lp850
I1
aI66
aI4
aI6
aI9
aI10
aI11
aI12
aI2
aI15
aI87
aI28
aI104
aI108
aI114
aI51
aI117
aI56
aI121
aI63
atRp851
sS'/Library/Frameworks/Python.framework/Versions/2.7/lib/python2.7/site-packages/simplejson/__init__.py'
p852
g3
((lp853
I536
aI281
aI282
aI283
aI284
aI285
aI286
aI571
aI400
aI98
aI99
aI100
aI102
aI401
aI104
aI107
aI109
aI111
aI112
aI113
aI114
aI115
aI116
aI117
aI121
aI123
aI130
aI131
aI132
aI133
aI134
aI135
aI136
aI137
aI138
aI139
aI140
aI141
aI142
aI143
aI144
aI145
aI146
aI147
aI404
aI405
aI150
aI151
aI152
aI153
aI154
aI155
aI156
aI406
aI103
aI462
aI463
aI464
aI280
atRp854
sS'/Library/Frameworks/Python.framework/Versions/2.7/lib/python2.7/site-packages/botocore/vendored/requests/packages/urllib3/util/url.py'
p855
g3
((lp856
I1
aI3
aI6
aI9
aI13
aI14
aI16
aI17
aI18
aI20
aI21
aI23
aI28
aI38
aI45
aI85
aI88
aI104
aI105
aI106
aI107
aI108
aI109
aI111
aI112
aI113
aI115
aI118
aI121
aI143
aI147
aI148
aI149
aI150
aI151
aI152
aI153
aI156
aI157
aI161
aI163
aI165
aI168
aI173
aI178
aI193
aI194
aI196
aI200
aI204
aI205
aI207
aI209
atRp857
sS'/Library/Frameworks/Python.framework/Versions/2.7/lib/python2.7/site-packages/botocore/args.py'
p858
g3
((lp859
I18
aI19
aI20
aI22
aI23
aI24
aI25
aI28
aI31
aI32
aI34
aI35
aI36
aI37
aI38
aI40
aI43
aI44
aI45
aI47
aI48
aI49
aI50
aI51
aI52
aI53
aI55
aI56
aI57
aI62
aI63
aI64
aI65
aI66
aI67
aI69
aI70
aI71
aI73
aI74
aI75
aI76
aI77
aI78
aI79
aI81
aI82
aI83
aI84
aI85
aI86
aI87
aI88
aI89
aI90
aI91
aI92
aI93
aI94
aI97
aI100
aI101
aI102
aI103
aI105
aI106
aI107
aI110
aI111
aI114
aI115
aI124
aI125
aI126
aI127
aI128
aI136
aI137
aI138
aI139
aI140
aI141
aI142
aI143
aI144
aI145
aI148
aI149
aI152
aI153
aI158
aI159
aI160
aI161
aI165
aI174
aI186
aI188
aI201
atRp860
sS'/Library/Frameworks/Python.framework/Versions/2.7/lib/python2.7/site-packages/botocore/docs/example.py'
p861
g3
((lp862
I134
aI13
aI14
aI173
aI17
aI18
aI19
aI148
aI161
aI162
aI164
aI48
aI172
aI45
aI176
aI49
aI59
aI68
aI69
aI141
aI84
aI113
aI127
atRp863
sS'/Library/Frameworks/Python.framework/Versions/2.7/lib/python2.7/site-packages/boto3/docs/utils.py'
p864
g3
((lp865
I65
aI69
aI75
aI13
aI15
aI17
aI20
aI92
aI93
aI112
aI100
aI41
aI48
aI60
atRp866
sS'/Library/Frameworks/Python.framework/Versions/2.7/lib/python2.7/site-packages/botocore/parsers.py'
p867
g3
((lp868
I116
aI117
aI118
aI119
aI120
aI121
aI123
aI124
aI126
aI129
aI131
aI134
aI135
aI136
aI138
aI150
aI151
aI152
aI155
aI156
aI159
aI165
aI166
aI167
aI168
aI172
aI175
aI176
aI179
aI180
aI183
aI195
aI196
aI197
aI199
aI200
aI201
aI202
aI203
aI204
aI205
aI206
aI207
aI208
aI209
aI211
aI217
aI234
aI235
aI236
aI242
aI245
aI250
aI251
aI252
aI253
aI254
aI255
aI257
aI273
aI285
aI288
aI292
aI293
aI294
aI295
aI297
aI300
aI301
aI302
aI303
aI304
aI306
aI310
aI311
aI312
aI313
aI314
aI316
aI337
aI338
aI340
aI346
aI347
aI348
aI350
aI351
aI352
aI353
aI354
aI355
aI356
aI357
aI361
aI362
aI363
aI364
aI365
aI366
aI375
aI377
aI382
aI383
aI384
aI385
aI387
aI388
aI389
aI390
aI392
aI396
aI398
aI399
aI400
aI401
aI412
aI413
aI415
aI416
aI417
aI418
aI419
aI420
aI421
aI426
aI428
aI437
aI444
aI448
aI450
aI452
aI454
aI456
aI460
aI464
aI465
aI466
aI469
aI471
aI487
aI501
aI505
aI515
aI517
aI523
aI543
aI545
aI563
aI573
aI576
aI579
aI606
aI611
aI624
aI625
aI626
aI638
aI640
aI653
aI662
aI682
aI696
aI704
aI706
aI710
aI712
aI718
aI720
aI721
aI722
aI723
aI724
aI725
aI726
aI727
aI728
aI729
aI730
aI732
aI733
aI734
aI735
aI737
aI738
aI742
aI743
aI745
aI746
aI767
aI768
aI769
aI771
aI773
aI774
aI775
aI776
aI777
aI778
aI791
aI804
aI811
aI812
aI813
aI816
aI819
aI821
aI823
aI826
aI831
aI846
aI848
aI850
aI851
aI853
aI855
aI881
aI894
aI917
aI919
aI920
aI923
aI924
aI925
aI926
aI927
aI928
atRp869
sS'/Library/Frameworks/Python.framework/Versions/2.7/lib/python2.7/site-packages/pyasn1/compat/binary.py'
p870
g3
((lp871
I25
aI7
aI9
atRp872
sS'/Library/Frameworks/Python.framework/Versions/2.7/lib/python2.7/site-packages/simplejson/compat.py'
p873
g3
((lp874
I2
aI3
aI4
aI5
aI6
aI8
aI9
aI10
aI11
aI12
aI13
aI14
aI15
aI16
aI17
aI40
atRp875
sS'/Library/Frameworks/Python.framework/Versions/2.7/lib/python2.7/site-packages/concurrent/__init__.py'
p876
g3
((lp877
I1
aI3
atRp878
sS'/Library/Frameworks/Python.framework/Versions/2.7/lib/python2.7/site-packages/botocore/docs/docstring.py'
p879
g3
((lp880
I13
aI14
aI15
aI16
aI19
aI26
aI27
aI33
aI34
aI35
aI36
aI38
aI40
aI42
aI48
aI62
aI66
aI68
aI74
aI84
aI85
aI89
aI90
aI94
aI95
atRp881
sS'/Library/Frameworks/Python.framework/Versions/2.7/lib/python2.7/site-packages/boto3/resources/factory.py'
p882
g3
((lp883
I141
aI270
aI15
aI17
aI18
aI19
aI20
aI21
aI22
aI23
aI24
aI27
aI284
aI30
aI37
aI38
aI39
aI40
aI42
aI306
aI441
aI326
aI205
aI14
aI152
aI219
aI486
aI359
aI402
aI170
aI253
aI382
atRp884
sS'/Library/Frameworks/Python.framework/Versions/2.7/lib/python2.7/posixpath.py'
p885
g3
((lp886
I256
aI257
aI258
aI259
aI260
aI86
aI264
aI343
aI272
aI88
aI345
aI287
aI288
aI46
aI54
aI66
aI67
aI68
aI70
aI73
aI74
aI332
aI333
aI335
aI338
aI339
aI85
aI342
aI87
aI344
aI89
aI346
aI348
aI351
aI352
aI353
aI354
aI355
aI273
aI360
aI366
aI114
aI115
aI122
aI123
aI124
aI125
aI126
aI254
aI341
atRp887
sS'/Library/Frameworks/Python.framework/Versions/2.7/lib/python2.7/site-packages/boto3/resources/__init__.py'
p888
g3
((lp889
I1
atRp890
sS'/Library/Frameworks/Python.framework/Versions/2.7/lib/python2.7/site-packages/argparse.py'
p891
g3
((lp892
I2049
aI2050
aI2060
aI2062
aI2064
aI2068
aI2069
aI2072
aI2073
aI2074
aI62
aI64
aI67
aI71
aI72
aI73
aI74
aI75
aI76
aI77
aI78
aI79
aI80
aI81
aI82
aI83
aI84
aI85
aI86
aI90
aI91
aI92
aI93
aI94
aI96
aI98
aI99
aI104
aI105
aI109
aI110
aI2163
aI2166
aI2169
aI122
aI125
aI127
aI128
aI129
aI130
aI131
aI132
aI2181
aI2182
aI138
aI145
aI147
aI2197
aI2198
aI2199
aI2202
aI156
aI159
aI2209
aI2210
aI163
aI2213
aI173
aI2224
aI178
aI182
aI183
aI184
aI2233
aI2234
aI2235
aI2236
aI2239
aI2243
aI2249
aI2250
aI2251
aI2254
aI2256
aI2257
aI2258
aI212
aI2263
aI216
aI221
aI223
aI229
aI2279
aI2281
aI2283
aI2291
aI2297
aI254
aI260
aI266
aI270
aI2320
aI274
aI279
aI2330
aI2336
aI2341
aI297
aI2346
aI304
aI2354
aI311
aI2363
aI316
aI2368
aI408
aI2119
aI504
aI511
aI558
aI581
aI597
aI616
aI629
aI640
aI644
aI649
aI653
aI658
aI660
aI664
aI669
aI671
aI675
aI680
aI682
aI696
aI709
aI714
aI716
aI720
aI121
aI729
aI730
aI731
aI2170
aI738
aI2173
aI2177
aI787
aI792
aI793
aI794
aI795
aI796
aI797
aI798
aI799
aI800
aI801
aI802
aI803
aI804
aI805
aI806
aI807
aI808
aI809
aI811
aI825
aI829
aI834
aI835
aI836
aI837
aI838
aI839
aI840
aI841
aI842
aI846
aI848
aI849
aI850
aI851
aI852
aI853
aI854
aI855
aI856
aI857
aI858
aI860
aI861
aI864
aI870
aI871
aI872
aI873
aI883
aI887
aI892
aI893
aI894
aI904
aI909
aI910
aI911
aI921
aI926
aI927
aI928
aI929
aI930
aI931
aI932
aI933
aI952
aI2207
aI958
aI964
aI965
aI966
aI967
aI978
aI984
aI989
aI990
aI991
aI1000
aI1005
aI1009
aI1010
aI1011
aI1012
aI1013
aI1014
aI1015
aI1016
aI1017
aI1019
aI1024
aI1028
aI1029
aI1030
aI1031
aI1040
aI1049
aI1051
aI1053
aI1065
aI1066
aI1067
aI1082
aI1105
aI1108
aI1137
aI1148
aI1150
aI1154
aI1171
aI1180
aI1185
aI1187
aI1188
aI1191
aI1193
aI1196
aI1199
aI1203
aI1205
aI1210
aI1212
aI1213
aI1214
aI1215
aI1218
aI1221
aI1222
aI1223
aI1224
aI1225
aI1226
aI1227
aI1228
aI1229
aI1230
aI1231
aI1234
aI1237
aI1238
aI1241
aI1242
aI1245
aI1248
aI1252
aI1257
aI1258
aI1259
aI1261
aI1262
aI1267
aI1276
aI1286
aI1295
aI1296
aI2264
aI1303
aI1306
aI1307
aI1308
aI1310
aI1314
aI1315
aI1317
aI1320
aI1321
aI1324
aI1326
aI1327
aI1328
aI1329
aI1331
aI1336
aI1338
aI1341
aI1342
aI1345
aI1346
aI1349
aI1350
aI1355
aI1357
aI1360
aI1400
aI1416
aI1418
aI1419
aI1420
aI1422
aI1429
aI1430
aI1431
aI1432
aI1433
aI1436
aI1437
aI1438
aI1439
aI1442
aI1443
aI1446
aI1449
aI1451
aI1452
aI1453
aI1455
aI1457
aI1458
aI1459
aI1464
aI1467
aI1468
aI1469
aI1474
aI1478
aI1485
aI1500
aI1502
aI1504
aI1505
aI1506
aI1507
aI1508
aI1509
aI1512
aI1513
aI1516
aI1517
aI1518
aI1519
aI1521
aI1523
aI1524
aI1525
aI1526
aI1528
aI1533
aI1535
aI1540
aI1548
aI1553
aI1569
aI1572
aI1573
aI1574
aI1575
aI1576
aI1577
aI1578
aI1579
aI1580
aI1581
aI1582
aI1583
aI1585
aI1593
aI1594
aI1595
aI1596
aI1597
aI1600
aI1601
aI1603
aI1604
aI1605
aI1606
aI1607
aI1608
aI1609
aI1611
aI1612
aI1613
aI1614
aI1617
aI1619
aI1623
aI1624
aI1627
aI1628
aI1629
aI1630
aI1631
aI1632
aI1640
aI1652
aI1667
aI1698
aI1699
aI1700
aI1703
aI1705
aI1710
aI1711
aI1712
aI1713
aI1718
aI1719
aI1720
aI1723
aI1725
aI1727
aI1728
aI1731
aI1732
aI1735
aI1736
aI1737
aI1738
aI1739
aI1740
aI1742
aI1745
aI1750
aI1751
aI1752
aI1755
aI1760
aI1762
aI1767
aI1768
aI1778
aI1779
aI1780
aI1781
aI1784
aI1792
aI1793
aI1794
aI1796
aI1797
aI1798
aI1801
aI1804
aI1805
aI1807
aI1808
aI1809
aI1814
aI1815
aI1816
aI1824
aI1825
aI1828
aI1831
aI1832
aI1836
aI1837
aI1838
aI1841
aI1847
aI1885
aI1886
aI1887
aI1888
aI1889
aI1890
aI1891
aI1895
aI1896
aI1897
aI1898
aI1902
aI1905
aI1907
aI1908
aI1909
aI1913
aI1920
aI1921
aI1925
aI1926
aI1927
aI1928
aI1931
aI1934
aI1935
aI1936
aI1937
aI1938
aI1951
aI1957
aI1960
aI1963
aI1967
aI1971
aI1972
aI1978
aI1993
aI1995
aI2024
aI2027
aI2029
aI2030
aI2033
aI2044
aI2046
atRp893
sS'/Library/Frameworks/Python.framework/Versions/2.7/lib/python2.7/site-packages/simplejson/encoder.py'
p894
g3
((lp895
I2
aI3
aI4
aI5
aI7
aI8
aI9
aI10
aI11
aI12
aI270
aI15
aI17
aI22
aI23
aI24
aI25
aI26
aI27
aI28
aI29
aI30
aI31
aI32
aI34
aI36
aI37
aI38
aI40
aI42
aI299
aI45
aI46
aI50
aI69
aI396
aI103
aI105
aI378
aI385
aI387
aI133
aI134
aI135
aI137
aI138
aI139
aI140
aI141
aI142
aI143
aI412
aI413
aI414
aI415
aI416
aI417
aI418
aI419
aI420
aI421
aI422
aI423
aI424
aI225
aI226
aI227
aI228
aI229
aI230
aI231
aI232
aI233
aI234
aI235
aI236
aI237
aI238
aI239
aI241
aI242
aI244
aI246
aI248
aI250
atRp896
sS'/Library/Frameworks/Python.framework/Versions/2.7/lib/python2.7/site-packages/botocore/vendored/requests/packages/urllib3/packages/ssl_match_hostname/__init__.py'
p897
g3
((lp898
I1
aI3
aI13
atRp899
sS'/Library/Frameworks/Python.framework/Versions/2.7/lib/python2.7/site-packages/botocore/paginate.py'
p900
g3
((lp901
I14
aI16
aI18
aI19
aI20
aI21
aI22
aI23
aI24
aI27
aI30
aI551
aI552
aI41
aI554
aI305
aI566
aI570
aI576
aI70
aI585
aI331
aI334
aI591
aI81
aI596
aI346
aI92
aI607
aI103
aI359
aI108
aI366
aI113
aI626
aI115
aI534
aI138
aI651
aI399
aI146
aI663
aI665
aI669
aI163
aI426
aI176
aI177
aI180
aI442
aI189
aI190
aI447
aI209
aI213
aI218
aI604
aI337
aI234
aI39
aI492
aI238
aI508
atRp902
sS'/Library/Frameworks/Python.framework/Versions/2.7/lib/python2.7/weakref.py'
p903
g3
((lp904
I65
aI67
aI68
aI69
aI331
aI332
aI339
aI341
aI342
aI343
aI49
aI52
aI53
aI54
aI56
atRp905
s.